(dp1
S'080-5970135'
p2
(dp3
S'7.1'
p4
F0.076923076923076927
sS'5.1'
p5
F0.33333333333333331
sS'8.3'
p6
F0.025000000000000001
sS'8.2'
p7
F0.20000000000000001
sS'8.5'
p8
F0.1111111111111111
sS'1.1'
p9
F0.073170731707317069
sS'1.3'
p10
F0.046511627906976744
sS'4.2'
p11
F0.20000000000000001
sS'5.2'
p12
F0.25
sS'8.1'
p13
F0.20000000000000001
sS'7.2'
p14
F0.5
sS'6.4'
p15
F1
sS'3.2'
p16
F0.42857142857142855
sS'9.4'
p17
F0.071428571428571425
sS'6.3'
p18
F0.2857142857142857
sS'8.4'
p19
F0.07407407407407407
sS'2.5'
p20
F0.064516129032258063
sS'2.4'
p21
F0.18181818181818182
ssS'066-15270802'
p22
(dp23
S'1.5'
p24
F0.20000000000000001
sS'1.6'
p25
F0.055555555555555552
sS'5.4'
p26
F1
sS'1.1'
p27
F0.33333333333333331
sS'1.2'
p28
F0.14285714285714285
sS'4.2'
p29
F0.040000000000000001
sS'1.3'
p30
F0.12
sS'7.1'
p31
F1
sS'3.2'
p32
F0.090909090909090912
sS'6.2'
p33
F0.035714285714285712
sS'6.1'
p34
F0.10344827586206896
sS'3.1'
p35
F0.17647058823529413
sS'2.3'
p36
F0.16666666666666666
sS'2.2'
p37
F0.090909090909090912
sS'2.5'
p38
F1
ssS'059-9045120'
p39
(dp40
S'4.5'
p41
F0.13333333333333333
sS'4.4'
p42
F0.2857142857142857
sS'4.7'
p43
F0.125
sS'4.6'
p44
F0.14285714285714285
sS'1.1'
p45
F0.095238095238095233
sS'4.3'
p46
F0.14285714285714285
sS'1.3'
p47
F0.07407407407407407
sS'1.14'
p48
F0.125
sS'5.9'
p49
F0.33333333333333331
sS'5.7'
p50
F0.066666666666666666
sS'4.9'
p51
F0.15384615384615385
sS'4.8'
p52
F1
sS'5.2'
p53
F0.10526315789473684
sS'5.6'
p54
F0.0625
sS'5.1'
p55
F1
sS'5.3'
p56
F0.035714285714285712
sS'2.3'
p57
F0.20000000000000001
sS'2.2'
p58
F0.15789473684210525
sS'5.8'
p59
F0.058823529411764705
sS'2.4'
p60
F0.071428571428571425
ssS'075-16233750'
p61
(dp62
S'1.4'
p63
F0.14285714285714285
sS'5.1'
p64
F0.14285714285714285
sS'5.2'
p65
F0.18181818181818182
sS'1.7'
p66
F0.20000000000000001
sS'4.1'
p67
F0.27272727272727271
sS'1.2'
p68
F0.27272727272727271
sS'1.3'
p69
F0.15384615384615385
sS'4.2'
p70
F0.5
sS'1.8'
p71
F0.17647058823529413
sS'1.6'
p72
F0.25
sS'5.4'
p73
F0.16666666666666666
sS'3.4'
p74
F0.125
sS'5.3'
p75
F0.14285714285714285
sS'3.2'
p76
F0.20000000000000001
sS'3.3'
p77
F0.22222222222222221
sS'3.1'
p78
F0.10000000000000001
sS'2.3'
p79
F0.375
sS'2.2'
p80
F0.59999999999999998
sS'2.4'
p81
F0.071428571428571425
sS'1.5'
p82
F0.055555555555555552
ssS'076-4622322'
p83
(dp84
S'1.7'
p85
F0.16666666666666666
sS'1.1'
p86
F0.066666666666666666
sS'1.9'
p87
F0.125
sS'7.2'
p88
F0.33333333333333331
sS'7.3'
p89
F0.16666666666666666
sS'3.4'
p90
F0.20000000000000001
sS'3.5'
p91
F0.10714285714285714
sS'3.2'
p92
F0.33333333333333331
sS'6.2'
p93
F0.083333333333333329
sS'7.4'
p94
F0.33333333333333331
sS'7.5'
p95
F0.083333333333333329
sS'2.3'
p96
F0.052631578947368418
sS'2.2'
p97
F0.15789473684210525
sS'2.5'
p98
F0.14285714285714285
sS'2.4'
p99
F0.11764705882352941
sS'1.16'
p100
F0.066666666666666666
sS'1.17'
p101
F0.1111111111111111
sS'1.14'
p102
F0.055555555555555552
sS'5.3'
p103
F0.15384615384615385
sS'4.1'
p104
F0.40000000000000002
sS'5.5'
p105
F0.14285714285714285
sS'1.10'
p106
F0.071428571428571425
sS'1.18'
p107
F0.086956521739130432
sS'5.4'
p108
F0.090909090909090912
sS'1.15'
p109
F0.25
sS'1.12'
p110
F0.1111111111111111
sS'1.13'
p111
F0.045454545454545456
sS'3.6'
p112
F0.080000000000000002
sS'3.3'
p113
F0.33333333333333331
ssS'074-6324762'
p114
(dp115
S'1.4'
p116
F0.125
sS'1.5'
p117
F0.16666666666666666
sS'1.6'
p118
F0.066666666666666666
sS'1.7'
p119
F0.125
sS'1.1'
p120
F0.66666666666666663
sS'1.2'
p121
F0.083333333333333329
sS'1.3'
p122
F0.071428571428571425
sS'1.9'
p123
F0.052631578947368418
sS'3.7'
p124
F0.25
sS'3.5'
p125
F0.25
sS'2.3'
p126
F0.15789473684210525
sS'2.2'
p127
F2
sS'2.6'
p128
F0.060606060606060608
sS'3.8'
p129
F0.090909090909090912
sS'2.4'
p130
F0.055555555555555552
sS'4.5'
p131
F0.0625
sS'4.4'
p132
F0.055555555555555552
sS'4.7'
p133
F0.076923076923076927
sS'4.6'
p134
F0.1111111111111111
sS'1.11'
p135
F0.18181818181818182
sS'4.9'
p136
F0.125
sS'4.8'
p137
F0.066666666666666666
sS'2.5'
p138
F0.090909090909090912
sS'5.1'
p139
F0.027777777777777776
sS'4.10'
p140
F0.090909090909090912
ssS'078-1321398'
p141
(dp142
S'5.2'
p143
F0.11764705882352941
sS'5.3'
p144
F0.40000000000000002
sS'5.4'
p145
F0.25
sS'1.1'
p146
F0.071428571428571425
sS'1.2'
p147
F0.375
sS'4.2'
p148
F0.33333333333333331
sS'1.3'
p149
F0.20000000000000001
sS'4.3'
p150
F0.25
sS'6.6'
p151
F0.125
sS'3.1'
p152
F0.15384615384615385
sS'2.2'
p153
F0.21428571428571427
sS'2.1'
p154
F0.2857142857142857
sS'5.5'
p155
F0.21428571428571427
ssS'078-3797219'
p156
(dp157
S'1.4'
p158
F0.088235294117647065
sS'1.2'
p159
F0.33333333333333331
sS'1.3'
p160
F0.1111111111111111
sS'7.2'
p161
F0.66666666666666663
sS'7.3'
p162
F0.375
sS'3.4'
p163
F0.052631578947368418
sS'7.1'
p164
F0.25
sS'3.2'
p165
F0.5
sS'7.7'
p166
F0.23076923076923078
sS'7.4'
p167
F2
sS'7.5'
p168
F1
sS'2.3'
p169
F1.5
sS'7.8'
p170
F0.27272727272727271
sS'7.9'
p171
F0.29999999999999999
sS'4.6'
p172
F0.20000000000000001
sS'4.4'
p173
F0.21428571428571427
sS'5.2'
p174
F0.12
sS'5.3'
p175
F0.25
sS'4.1'
p176
F0.23076923076923078
sS'4.3'
p177
F0.25
sS'4.2'
p178
F0.16666666666666666
sS'11.4'
p179
F0.125
sS'11.5'
p180
F0.027777777777777776
sS'11.6'
p181
F0.5
sS'11.7'
p182
F1
sS'11.1'
p183
F0.18181818181818182
sS'11.2'
p184
F0.047619047619047616
sS'11.3'
p185
F0.071428571428571425
sS'9.1'
p186
F0.16666666666666666
sS'10.3'
p187
F0.083333333333333329
sS'10.2'
p188
F0.090909090909090912
sS'8.6'
p189
F0.083333333333333329
sS'6.3'
p190
F0.125
sS'7.6'
p191
F0.23076923076923078
ssS'074-0998972'
p192
(dp193
S'1.4'
p194
F0.055555555555555552
sS'1.6'
p195
F0.11764705882352941
sS'1.1'
p196
F0.1875
sS'1.2'
p197
F0.17647058823529413
sS'1.3'
p198
F0.18181818181818182
sS'1.8'
p199
F0.15384615384615385
sS'3.6'
p200
F0.27272727272727271
sS'3.7'
p201
F0.20000000000000001
sS'3.4'
p202
F0.10344827586206896
sS'3.5'
p203
F0.14285714285714285
sS'6.3'
p204
F0.12
sS'3.3'
p205
F0.14999999999999999
sS'3.1'
p206
F0.052631578947368418
sS'2.3'
p207
F0.25
sS'2.2'
p208
F0.17647058823529413
sS'2.1'
p209
F0.065217391304347824
sS'2.7'
p210
F0.33333333333333331
sS'2.6'
p211
F1
sS'3.8'
p212
F0.11764705882352941
sS'3.9'
p213
F0.11764705882352941
sS'5.1'
p214
F0.090909090909090912
sS'5.2'
p215
F0.066666666666666666
sS'2.4'
p216
F0.16666666666666666
sS'6.4'
p217
F0.027777777777777776
ssS'058-13714734'
p218
(dp219
S'1.4'
p220
F0.13043478260869565
sS'1.3'
p221
F0.073170731707317069
sS'3.6'
p222
F0.076923076923076927
sS'3.7'
p223
F0.29999999999999999
sS'6.5'
p224
F0.5
sS'6.4'
p225
F0.14285714285714285
sS'6.3'
p226
F0.14285714285714285
sS'2.3'
p227
F0.066666666666666666
sS'2.2'
p228
F0.10526315789473684
sS'6.9'
p229
F0.25
sS'2.4'
p230
F0.055555555555555552
sS'5.2'
p231
F0.066666666666666666
sS'5.3'
p232
F0.038461538461538464
sS'5.5'
p233
F0.22222222222222221
sS'4.3'
p234
F0.15384615384615385
sS'5.7'
p235
F0.090909090909090912
sS'5.8'
p236
F0.055555555555555552
sS'5.9'
p237
F0.064516129032258063
sS'6.8'
p238
F0.20000000000000001
sS'6.13'
p239
F0.047619047619047616
sS'6.12'
p240
F0.15384615384615385
sS'6.11'
p241
F0.125
sS'6.10'
p242
F0.125
sS'6.14'
p243
F0.14285714285714285
sS'5.10'
p244
F0.066666666666666666
sS'6.7'
p245
F0.33333333333333331
sS'5.6'
p246
F0.13333333333333333
sS'6.6'
p247
F0.33333333333333331
ssS'060-0021651'
p248
(dp249
S'1.4'
p250
F0.10526315789473684
sS'1.5'
p251
F0.18181818181818182
sS'1.1'
p252
F0.125
sS'1.3'
p253
F0.17647058823529413
sS'3.6'
p254
F0.17647058823529413
sS'7.1'
p255
F0.125
sS'3.2'
p256
F0.16666666666666666
sS'6.2'
p257
F0.095238095238095233
sS'6.1'
p258
F0.2857142857142857
sS'3.1'
p259
F0.5
sS'2.3'
p260
F0.090909090909090912
sS'2.2'
p261
F0.125
sS'2.1'
p262
F0.14285714285714285
sS'8.1'
p263
F0.10526315789473684
sS'4.4'
p264
F0.090909090909090912
sS'5.2'
p265
F0.11764705882352941
sS'5.3'
p266
F0.083333333333333329
sS'5.4'
p267
F0.076923076923076927
sS'5.5'
p268
F0.076923076923076927
sS'4.3'
p269
F0.20000000000000001
sS'5.1'
p270
F0.055555555555555552
sS'8.3'
p271
F0.2857142857142857
sS'8.2'
p272
F0.1111111111111111
sS'5.6'
p273
F0.1111111111111111
ssS'079-14194071'
p274
(dp275
S'5.6'
p276
F0.0625
sS'5.2'
p277
F0.22222222222222221
sS'5.3'
p278
F0.17647058823529413
sS'5.4'
p279
F0.055555555555555552
sS'4.3'
p280
F0.068965517241379309
sS'1.2'
p281
F0.20000000000000001
sS'5.7'
p282
F0.13636363636363635
sS'1.3'
p283
F0.14285714285714285
sS'4.2'
p284
F0.10344827586206896
sS'3.2'
p285
F3
sS'2.1'
p286
F2
sS'5.5'
p287
F0.068965517241379309
ssS'068-16207900'
p288
(dp289
S'1.4'
p290
F0.23076923076923078
sS'1.5'
p291
F0.1875
sS'1.6'
p292
F0.33333333333333331
sS'1.2'
p293
F0.25
sS'1.3'
p294
F0.20000000000000001
sS'3.6'
p295
F0.16666666666666666
sS'3.7'
p296
F0.14285714285714285
sS'3.4'
p297
F0.25
sS'3.5'
p298
F0.18181818181818182
sS'3.2'
p299
F0.090909090909090912
sS'5.22'
p300
F0.40000000000000002
sS'3.1'
p301
F0.21428571428571427
sS'2.7'
p302
F0.076923076923076927
sS'2.6'
p303
F0.27272727272727271
sS'4.5'
p304
F0.15384615384615385
sS'4.4'
p305
F0.15384615384615385
sS'4.6'
p306
F0.5
sS'4.3'
p307
F0.15384615384615385
sS'4.2'
p308
F0.40000000000000002
sS'2.14'
p309
F0.66666666666666663
sS'2.13'
p310
F0.15384615384615385
sS'2.12'
p311
F0.29999999999999999
sS'2.11'
p312
F0.25
sS'2.10'
p313
F0.16666666666666666
sS'5.11'
p314
F0.20000000000000001
sS'5.16'
p315
F0.125
sS'5.17'
p316
F0.090909090909090912
sS'5.14'
p317
F0.10000000000000001
sS'5.15'
p318
F0.083333333333333329
sS'5.18'
p319
F0.1111111111111111
sS'2.9'
p320
F0.071428571428571425
sS'2.8'
p321
F0.0625
sS'6.3'
p322
F1
sS'3.3'
p323
F0.10000000000000001
ssS'026-4380722'
p324
(dp325
S'1.4'
p326
F0.16666666666666666
sS'1.5'
p327
F0.20000000000000001
sS'5.2'
p328
F0.125
sS'5.3'
p329
F0.11764705882352941
sS'5.4'
p330
F0.1111111111111111
sS'1.1'
p331
F0.25
sS'1.2'
p332
F0.14999999999999999
sS'1.3'
p333
F0.16666666666666666
sS'4.5'
p334
F0.2857142857142857
sS'1.8'
p335
F0.33333333333333331
sS'1.6'
p336
F0.15384615384615385
sS'5.1'
p337
F0.18181818181818182
sS'1.7'
p338
F0.071428571428571425
sS'3.1'
p339
F0.375
sS'4.4'
p340
F0.40000000000000002
sS'2.1'
p341
F0.33333333333333331
sS'5.5'
p342
F0.14285714285714285
ssS'023-2964247'
p343
(dp344
S'1.4'
p345
F0.045454545454545456
sS'1.5'
p346
F0.086956521739130432
sS'1.1'
p347
F0.22222222222222221
sS'1.2'
p348
F0.1875
sS'1.3'
p349
F0.10000000000000001
sS'7.2'
p350
F0.17647058823529413
sS'7.3'
p351
F1
sS'6.5'
p352
F0.125
sS'3.3'
p353
F0.16666666666666666
sS'6.1'
p354
F0.125
sS'3.1'
p355
F0.071428571428571425
sS'2.3'
p356
F0.21428571428571427
sS'2.2'
p357
F0.090909090909090912
sS'2.1'
p358
F0.40000000000000002
sS'2.5'
p359
F0.066666666666666666
sS'2.4'
p360
F0.15789473684210525
sS'5.2'
p361
F0.16666666666666666
sS'5.3'
p362
F0.20000000000000001
sS'4.1'
p363
F0.12
sS'5.5'
p364
F0.055555555555555552
sS'4.2'
p365
F0.5
sS'6.6'
p366
F0.10526315789473684
ssS'078-8112187'
p367
(dp368
S'5.1'
p369
F0.066666666666666666
sS'5.2'
p370
F0.33333333333333331
sS'4.1'
p371
F0.59999999999999998
sS'1.1'
p372
F0.21428571428571427
sS'1.2'
p373
F1.5
sS'7.3'
p374
F0.10526315789473684
sS'6.3'
p375
F0.40000000000000002
sS'7.2'
p376
F0.5
sS'6.6'
p377
F0.15384615384615385
sS'6.5'
p378
F2
sS'6.4'
p379
F0.5
sS'3.2'
p380
F0.2857142857142857
sS'3.1'
p381
F0.5
sS'2.2'
p382
F0.25
sS'2.1'
p383
F3
ssS'075-15948761'
p384
(dp385
S'1.5'
p386
F0.33333333333333331
sS'1.2'
p387
F2
sS'1.3'
p388
F0.050000000000000003
sS'4.6'
p389
F0.068965517241379309
sS'6.7'
p390
F2
sS'6.5'
p391
F0.043478260869565216
sS'7.1'
p392
F0.0625
sS'3.2'
p393
F0.086956521739130432
sS'3.1'
p394
F0.10000000000000001
sS'2.3'
p395
F0.13333333333333333
sS'2.2'
p396
F0.5
sS'2.6'
p397
F0.083333333333333329
sS'2.5'
p398
F0.75
sS'2.4'
p399
F0.25
sS'4.4'
p400
F0.20000000000000001
sS'5.2'
p401
F0.076923076923076927
sS'5.3'
p402
F0.064516129032258063
sS'5.4'
p403
F0.5
sS'5.5'
p404
F0.033333333333333333
sS'4.3'
p405
F0.33333333333333331
sS'9.4'
p406
F0.023809523809523808
sS'9.5'
p407
F0.14285714285714285
sS'9.1'
p408
F0.23076923076923078
sS'9.2'
p409
F0.22222222222222221
sS'9.3'
p410
F0.056603773584905662
sS'5.1'
p411
F0.22222222222222221
sS'8.3'
p412
F0.10526315789473684
sS'8.2'
p413
F0.086956521739130432
sS'8.4'
p414
F0.052631578947368418
sS'6.4'
p415
F0.25
sS'4.7'
p416
F0.083333333333333329
ssS'079-4736087'
p417
(dp418
S'4.7'
p419
F0.090909090909090912
sS'4.6'
p420
F0.068181818181818177
sS'5.4'
p421
F0.375
sS'5.5'
p422
F0.125
sS'1.2'
p423
F0.125
sS'1.3'
p424
F0.125
sS'4.8'
p425
F0.043478260869565216
sS'6.3'
p426
F0.037735849056603772
sS'3.2'
p427
F0.14285714285714285
sS'6.2'
p428
F0.071428571428571425
sS'2.3'
p429
F0.064516129032258063
sS'2.2'
p430
F0.11538461538461539
sS'2.4'
p431
F0.055555555555555552
ssS'107-16164699'
p432
(dp433
S'1.4'
p434
F0.13043478260869565
sS'1.6'
p435
F0.16666666666666666
sS'1.2'
p436
F0.25
sS'1.3'
p437
F0.10714285714285714
sS'3.10'
p438
F0.20000000000000001
sS'3.12'
p439
F0.22222222222222221
sS'3.13'
p440
F0.16666666666666666
sS'3.6'
p441
F0.2857142857142857
sS'3.7'
p442
F0.16666666666666666
sS'7.1'
p443
F2
sS'6.3'
p444
F0.125
sS'6.2'
p445
F0.5
sS'6.1'
p446
F0.5
sS'2.3'
p447
F1
sS'2.2'
p448
F0.15384615384615385
sS'2.5'
p449
F0.2857142857142857
sS'2.4'
p450
F0.40000000000000002
sS'4.7'
p451
F0.25
sS'5.3'
p452
F0.14999999999999999
sS'5.5'
p453
F0.125
sS'5.6'
p454
F0.058823529411764705
sS'4.8'
p455
F0.33333333333333331
sS'3.8'
p456
F0.375
sS'4.6'
p457
F0.050000000000000003
ssS'070-4154814'
p458
(dp459
S'1.1'
p460
F0.069767441860465115
sS'1.2'
p461
F0.29999999999999999
sS'1.3'
p462
F0.25
sS'3.10'
p463
F1
sS'3.11'
p464
F1
sS'3.12'
p465
F0.086956521739130432
sS'6.7'
p466
F0.13333333333333333
sS'6.6'
p467
F0.20000000000000001
sS'6.5'
p468
F0.14285714285714285
sS'3.5'
p469
F0.095238095238095233
sS'2.3'
p470
F0.052631578947368418
sS'2.2'
p471
F0.095238095238095233
sS'2.1'
p472
F0.29999999999999999
sS'6.9'
p473
F0.1111111111111111
sS'2.4'
p474
F0.090909090909090912
sS'4.5'
p475
F0.088235294117647065
sS'4.4'
p476
F0.10000000000000001
sS'5.2'
p477
F0.33333333333333331
sS'5.3'
p478
F0.066666666666666666
sS'4.1'
p479
F0.076923076923076927
sS'4.3'
p480
F0.20000000000000001
sS'4.2'
p481
F0.071428571428571425
sS'5.1'
p482
F0.052631578947368418
sS'4.6'
p483
F0.20000000000000001
sS'3.6'
p484
F0.25
sS'3.4'
p485
F0.33333333333333331
sS'6.4'
p486
F0.20000000000000001
ssS'061-10140940'
p487
(dp488
S'1.4'
p489
F0.076923076923076927
sS'1.5'
p490
F0.066666666666666666
sS'1.6'
p491
F0.33333333333333331
sS'1.7'
p492
F0.066666666666666666
sS'1.1'
p493
F0.20000000000000001
sS'1.2'
p494
F0.066666666666666666
sS'1.3'
p495
F0.33333333333333331
sS'6.5'
p496
F0.071428571428571425
sS'6.4'
p497
F0.055555555555555552
sS'6.3'
p498
F0.071428571428571425
sS'3.3'
p499
F1
sS'6.1'
p500
F0.23076923076923078
sS'2.3'
p501
F0.15384615384615385
sS'2.1'
p502
F0.22222222222222221
sS'2.4'
p503
F0.21428571428571427
sS'4.5'
p504
F0.17647058823529413
sS'5.1'
p505
F0.23076923076923078
sS'5.2'
p506
F0.17647058823529413
sS'5.3'
p507
F0.15384615384615385
sS'4.1'
p508
F0.59999999999999998
sS'1.10'
p509
F0.25
sS'4.2'
p510
F0.25
sS'4.4'
p511
F0.66666666666666663
sS'4.7'
p512
F0.058823529411764705
sS'4.6'
p513
F0.076923076923076927
sS'4.3'
p514
F1
sS'1.11'
p515
F0.66666666666666663
sS'3.4'
p516
F0.25
ssS'074-14150913'
p517
(dp518
S'5.2'
p519
F0.10526315789473684
sS'4.1'
p520
F0.096774193548387094
sS'1.1'
p521
F0.14285714285714285
sS'1.2'
p522
F0.12
sS'1.3'
p523
F0.15384615384615385
sS'6.5'
p524
F0.083333333333333329
sS'7.2'
p525
F0.16666666666666666
sS'6.6'
p526
F3
sS'3.4'
p527
F0.21428571428571427
sS'6.4'
p528
F0.14285714285714285
sS'6.3'
p529
F2
sS'6.2'
p530
F0.21428571428571427
sS'2.3'
p531
F0.083333333333333329
sS'2.1'
p532
F0.59999999999999998
ssS'053-15927827'
p533
(dp534
S'1.5'
p535
F0.16666666666666666
sS'7.10'
p536
F0.25
sS'1.1'
p537
F0.12
sS'1.2'
p538
F0.14999999999999999
sS'4.10'
p539
F0.33333333333333331
sS'3.10'
p540
F0.10526315789473684
sS'3.11'
p541
F0.071428571428571425
sS'6.7'
p542
F0.058823529411764705
sS'6.6'
p543
F0.10714285714285714
sS'6.5'
p544
F0.5
sS'2.8'
p545
F0.18181818181818182
sS'2.3'
p546
F0.20000000000000001
sS'2.2'
p547
F0.33333333333333331
sS'7.9'
p548
F0.16666666666666666
sS'2.7'
p549
F0.5
sS'2.6'
p550
F0.21428571428571427
sS'3.8'
p551
F0.083333333333333329
sS'6.8'
p552
F0.29999999999999999
sS'4.7'
p553
F3
sS'5.3'
p554
F0.050000000000000003
sS'5.4'
p555
F0.076923076923076927
sS'5.5'
p556
F0.045454545454545456
sS'5.6'
p557
F0.40000000000000002
sS'1.3'
p558
F0.1111111111111111
sS'4.9'
p559
F0.14285714285714285
sS'2.5'
p560
F0.25
sS'7.12'
p561
F0.055555555555555552
sS'3.9'
p562
F3
sS'2.10'
p563
F0.052631578947368418
sS'2.4'
p564
F0.42857142857142855
sS'5.2'
p565
F0.15789473684210525
sS'4.14'
p566
F0.050000000000000003
sS'7.11'
p567
F0.20000000000000001
sS'2.9'
p568
F0.076923076923076927
ssS'060-4302525'
p569
(dp570
S'1.4'
p571
F0.090909090909090912
sS'1.5'
p572
F0.07407407407407407
sS'1.6'
p573
F0.16666666666666666
sS'1.7'
p574
F0.25
sS'1.1'
p575
F0.14285714285714285
sS'1.2'
p576
F0.045454545454545456
sS'1.3'
p577
F0.125
sS'1.8'
p578
F0.125
sS'1.9'
p579
F0.050000000000000003
sS'7.2'
p580
F0.16666666666666666
sS'3.4'
p581
F0.043478260869565216
sS'7.1'
p582
F0.18181818181818182
sS'6.3'
p583
F0.22222222222222221
sS'3.1'
p584
F0.33333333333333331
sS'2.2'
p585
F0.125
sS'2.1'
p586
F0.125
sS'2.6'
p587
F0.16666666666666666
sS'2.5'
p588
F0.13333333333333333
sS'8.1'
p589
F0.15384615384615385
sS'5.1'
p590
F0.076923076923076927
sS'5.2'
p591
F0.071428571428571425
sS'8.2'
p592
F0.090909090909090912
sS'4.1'
p593
F0.20000000000000001
sS'4.2'
p594
F0.071428571428571425
sS'6.4'
p595
F0.043478260869565216
ssS'078-15693133'
p596
(dp597
S'1.4'
p598
F0.375
sS'4.4'
p599
F0.29999999999999999
sS'5.2'
p600
F0.07407407407407407
sS'5.3'
p601
F0.22222222222222221
sS'1.2'
p602
F0.1111111111111111
sS'4.3'
p603
F2
sS'1.3'
p604
F0.33333333333333331
sS'4.10'
p605
F0.050000000000000003
sS'4.9'
p606
F0.058823529411764705
sS'2.12'
p607
F0.2857142857142857
sS'5.1'
p608
F0.086956521739130432
sS'4.6'
p609
F1
sS'3.2'
p610
F0.5
sS'2.11'
p611
F0.20000000000000001
sS'1.1'
p612
F0.125
sS'2.10'
p613
F0.083333333333333329
sS'2.6'
p614
F0.18181818181818182
sS'2.5'
p615
F0.27272727272727271
sS'2.4'
p616
F0.13636363636363635
ssS'078-6832141'
p617
(dp618
S'1.1'
p619
F0.17647058823529413
sS'7.1'
p620
F0.40000000000000002
sS'3.2'
p621
F2
sS'3.3'
p622
F0.23076923076923078
sS'6.1'
p623
F0.1111111111111111
sS'3.1'
p624
F0.25
sS'2.2'
p625
F2
sS'2.1'
p626
F0.20000000000000001
sS'8.11'
p627
F2
sS'8.10'
p628
F2
sS'8.13'
p629
F2
sS'8.12'
p630
F2
sS'4.5'
p631
F2
sS'4.4'
p632
F0.2857142857142857
sS'5.2'
p633
F0.75
sS'5.3'
p634
F2
sS'5.4'
p635
F2
sS'8.4'
p636
F2
sS'4.3'
p637
F2
sS'4.2'
p638
F0.42857142857142855
sS'8.9'
p639
F2
sS'8.8'
p640
F2
sS'8.14'
p641
F2
sS'8.1'
p642
F0.33333333333333331
sS'8.3'
p643
F2
sS'8.2'
p644
F2
sS'8.5'
p645
F2
sS'8.7'
p646
F2
sS'8.6'
p647
F2
sS'6.3'
p648
F1
sS'6.2'
p649
F0.20000000000000001
ssS'094-2808305'
p650
(dp651
S'1.4'
p652
F0.23076923076923078
sS'4.1'
p653
F0.40000000000000002
sS'4.14'
p654
F0.14285714285714285
sS'1.2'
p655
F0.1111111111111111
sS'4.2'
p656
F0.024390243902439025
sS'1.3'
p657
F0.16666666666666666
sS'4.28'
p658
F0.083333333333333329
sS'4.29'
p659
F0.16666666666666666
sS'3.2'
p660
F0.15384615384615385
sS'4.30'
p661
F0.058823529411764705
sS'2.5'
p662
F0.17647058823529413
sS'5.5'
p663
F0.125
ssS'071-10334272'
p664
(dp665
S'5.6'
p666
F0.10000000000000001
sS'5.2'
p667
F0.13043478260869565
sS'5.3'
p668
F0.15789473684210525
sS'5.4'
p669
F0.15384615384615385
sS'5.5'
p670
F0.15789473684210525
sS'1.2'
p671
F0.13043478260869565
sS'4.2'
p672
F0.25
sS'5.8'
p673
F0.086956521739130432
sS'5.9'
p674
F0.071428571428571425
sS'1.3'
p675
F0.1111111111111111
sS'3.4'
p676
F0.050000000000000003
sS'3.2'
p677
F0.17647058823529413
sS'5.7'
p678
F0.090909090909090912
sS'4.3'
p679
F0.038461538461538464
sS'2.2'
p680
F0.15789473684210525
sS'1.1'
p681
F0.5
ssS'007-7484738'
p682
(dp683
S'1.4'
p684
F0.090909090909090912
sS'1.5'
p685
F0.041666666666666664
sS'5.3'
p686
F0.16666666666666666
sS'5.4'
p687
F0.1111111111111111
sS'1.1'
p688
F0.15384615384615385
sS'1.2'
p689
F0.11538461538461539
sS'1.3'
p690
F0.125
sS'4.4'
p691
F0.071428571428571425
sS'5.5'
p692
F0.21428571428571427
sS'4.2'
p693
F0.058823529411764705
sS'3.3'
p694
F0.090909090909090912
sS'3.6'
p695
F0.5
sS'3.7'
p696
F0.0625
sS'3.8'
p697
F0.33333333333333331
sS'4.3'
p698
F0.071428571428571425
sS'2.3'
p699
F0.0625
sS'2.2'
p700
F0.018867924528301886
sS'2.5'
p701
F0.25
sS'2.4'
p702
F0.047619047619047616
ssS'077-4500595'
p703
(dp704
S'5.6'
p705
F0.10000000000000001
sS'1.5'
p706
F0.090909090909090912
sS'1.6'
p707
F0.1875
sS'5.4'
p708
F0.10526315789473684
sS'1.1'
p709
F0.16666666666666666
sS'1.2'
p710
F0.080000000000000002
sS'4.2'
p711
F0.1875
sS'1.3'
p712
F0.22222222222222221
sS'3.1'
p713
F0.083333333333333329
sS'2.8'
p714
F0.13043478260869565
sS'3.2'
p715
F0.14999999999999999
sS'5.7'
p716
F0.038461538461538464
sS'4.3'
p717
F0.090909090909090912
sS'2.7'
p718
F0.14285714285714285
sS'5.5'
p719
F0.057142857142857141
ssS'043-10248963'
p720
(dp721
S'8.1'
p722
F0.25
sS'5.1'
p723
F0.125
sS'8.2'
p724
F1
sS'4.1'
p725
F0.071428571428571425
sS'1.1'
p726
F0.17647058823529413
sS'1.2'
p727
F0.16666666666666666
sS'7.5'
p728
F0.047619047619047616
sS'7.2'
p729
F0.15384615384615385
sS'7.3'
p730
F0.055555555555555552
sS'7.1'
p731
F0.02
sS'6.3'
p732
F0.090909090909090912
sS'6.2'
p733
F0.10000000000000001
sS'7.4'
p734
F0.15384615384615385
sS'3.1'
p735
F0.14285714285714285
sS'2.3'
p736
F0.071428571428571425
sS'2.2'
p737
F0.1111111111111111
sS'2.1'
p738
F0.090909090909090912
sS'7.7'
p739
F0.090909090909090912
sS'7.6'
p740
F0.080000000000000002
sS'2.4'
p741
F0.2857142857142857
ssS'053-15491914'
p742
(dp743
S'8.1'
p744
F0.0625
sS'5.1'
p745
F0.052631578947368418
sS'4.7'
p746
F0.040000000000000001
sS'4.6'
p747
F0.17647058823529413
sS'1.1'
p748
F0.1875
sS'1.2'
p749
F0.23076923076923078
sS'4.2'
p750
F0.090909090909090912
sS'6.13'
p751
F0.66666666666666663
sS'6.12'
p752
F0.1111111111111111
sS'3.14'
p753
F0.25
sS'3.15'
p754
F0.15384615384615385
sS'3.16'
p755
F1
sS'6.4'
p756
F0.5
sS'2.8'
p757
F0.1111111111111111
sS'6.15'
p758
F0.066666666666666666
sS'7.4'
p759
F0.16666666666666666
sS'2.7'
p760
F0.11764705882352941
sS'2.6'
p761
F0.028571428571428571
sS'3.8'
p762
F0.5
sS'6.8'
p763
F0.10000000000000001
ssS'067-1027069'
p764
(dp765
S'1.1'
p766
F0.085714285714285715
sS'1.2'
p767
F0.068965517241379309
sS'1.3'
p768
F0.14285714285714285
sS'3.6'
p769
F0.1111111111111111
sS'6.6'
p770
F0.055555555555555552
sS'6.5'
p771
F0.14285714285714285
sS'3.5'
p772
F0.1111111111111111
sS'6.3'
p773
F0.10000000000000001
sS'2.3'
p774
F0.16666666666666666
sS'2.2'
p775
F0.25
sS'2.1'
p776
F0.75
sS'3.8'
p777
F0.083333333333333329
sS'3.9'
p778
F0.047619047619047616
sS'5.2'
p779
F0.13636363636363635
sS'5.3'
p780
F0.17647058823529413
sS'5.4'
p781
F0.0625
sS'5.5'
p782
F0.16666666666666666
sS'5.6'
p783
F0.14285714285714285
sS'4.2'
p784
F0.045454545454545456
sS'5.9'
p785
F0.050000000000000003
sS'2.4'
p786
F0.032258064516129031
sS'5.12'
p787
F0.1111111111111111
sS'5.13'
p788
F0.076923076923076927
sS'5.10'
p789
F0.14285714285714285
sS'5.11'
p790
F0.10526315789473684
sS'5.14'
p791
F0.027777777777777776
sS'5.15'
p792
F0.038461538461538464
sS'3.7'
p793
F0.035714285714285712
sS'5.7'
p794
F0.038461538461538464
sS'6.4'
p795
F0.015151515151515152
ssS'059-7186494'
p796
(dp797
S'1.4'
p798
F0.25
sS'1.5'
p799
F0.16666666666666666
sS'4.7'
p800
F0.14285714285714285
sS'4.5'
p801
F0.14285714285714285
sS'4.1'
p802
F0.29999999999999999
sS'1.1'
p803
F0.25
sS'1.2'
p804
F0.20000000000000001
sS'1.3'
p805
F1
sS'4.4'
p806
F0.2857142857142857
sS'4.2'
p807
F0.33333333333333331
sS'1.6'
p808
F0.076923076923076927
sS'4.3'
p809
F0.18181818181818182
sS'4.6'
p810
F0.15789473684210525
sS'3.1'
p811
F0.16666666666666666
sS'2.3'
p812
F0.125
sS'2.2'
p813
F0.33333333333333331
sS'2.1'
p814
F0.27272727272727271
ssS'074-2313297'
p815
(dp816
S'7.14'
p817
F0.037037037037037035
sS'7.15'
p818
F0.16666666666666666
sS'7.17'
p819
F0.125
sS'1.1'
p820
F0.096774193548387094
sS'1.2'
p821
F0.33333333333333331
sS'7.18'
p822
F0.034482758620689655
sS'3.4'
p823
F0.071428571428571425
sS'2.8'
p824
F0.10000000000000001
sS'3.2'
p825
F0.037037037037037035
sS'3.3'
p826
F0.035714285714285712
sS'3.1'
p827
F0.080000000000000002
sS'2.7'
p828
F0.23076923076923078
sS'2.6'
p829
F0.076923076923076927
sS'2.4'
p830
F0.090909090909090912
sS'4.5'
p831
F0.16666666666666666
sS'4.4'
p832
F0.10000000000000001
sS'4.7'
p833
F0.14285714285714285
sS'4.6'
p834
F0.083333333333333329
sS'7.12'
p835
F0.047619047619047616
sS'4.3'
p836
F0.071428571428571425
sS'4.2'
p837
F0.10000000000000001
sS'8.9'
p838
F0.043478260869565216
sS'8.11'
p839
F0.0625
sS'4.9'
p840
F0.041666666666666664
sS'4.8'
p841
F0.083333333333333329
sS'2.12'
p842
F0.090909090909090912
sS'2.11'
p843
F0.0625
sS'2.10'
p844
F0.055555555555555552
sS'8.6'
p845
F0.076923076923076927
sS'2.9'
p846
F0.10000000000000001
sS'8.8'
p847
F0.058823529411764705
ssS'059-15393869'
p848
(dp849
S'5.1'
p850
F0.15384615384615385
sS'5.2'
p851
F0.75
sS'5.3'
p852
F0.1875
sS'4.1'
p853
F0.75
sS'1.2'
p854
F0.071428571428571425
sS'5.4'
p855
F0.23076923076923078
sS'1.14'
p856
F0.0625
sS'1.15'
p857
F0.066666666666666666
sS'6.2'
p858
F0.083333333333333329
sS'6.1'
p859
F0.375
sS'3.1'
p860
F0.75
sS'2.3'
p861
F0.090909090909090912
sS'2.2'
p862
F1
sS'2.1'
p863
F0.1875
ssS'015-2625401'
p864
(dp865
S'1.4'
p866
F1
sS'1.6'
p867
F0.0625
sS'1.7'
p868
F0.090909090909090912
sS'1.2'
p869
F0.076923076923076927
sS'1.3'
p870
F0.1111111111111111
sS'3.10'
p871
F0.083333333333333329
sS'3.11'
p872
F0.375
sS'1.8'
p873
F1
sS'1.9'
p874
F0.1111111111111111
sS'6.3'
p875
F0.10526315789473684
sS'6.2'
p876
F0.40000000000000002
sS'2.7'
p877
F0.066666666666666666
sS'2.6'
p878
F0.10344827586206896
sS'2.5'
p879
F0.20000000000000001
sS'2.4'
p880
F0.125
sS'1.16'
p881
F0.27272727272727271
sS'1.17'
p882
F0.375
sS'1.14'
p883
F0.5
sS'1.15'
p884
F0.052631578947368418
sS'1.12'
p885
F1
sS'1.13'
p886
F0.034482758620689655
sS'1.10'
p887
F0.034482758620689655
sS'1.11'
p888
F0.03125
sS'1.18'
p889
F0.1111111111111111
sS'4.1'
p890
F0.16666666666666666
sS'4.5'
p891
F0.25
sS'4.4'
p892
F0.13333333333333333
sS'5.3'
p893
F0.09375
sS'5.4'
p894
F0.047619047619047616
sS'5.5'
p895
F0.13636363636363635
sS'4.3'
p896
F0.16666666666666666
sS'4.2'
p897
F0.066666666666666666
ssS'063-1009111'
p898
(dp899
S'1.5'
p900
F0.055555555555555552
sS'1.1'
p901
F0.086956521739130432
sS'1.2'
p902
F0.096774193548387094
sS'1.3'
p903
F0.10344827586206896
sS'3.10'
p904
F0.076923076923076927
sS'3.11'
p905
F0.10000000000000001
sS'3.6'
p906
F0.23076923076923078
sS'6.6'
p907
F0.035714285714285712
sS'6.5'
p908
F0.11538461538461539
sS'3.5'
p909
F0.090909090909090912
sS'6.3'
p910
F0.21428571428571427
sS'6.2'
p911
F0.13636363636363635
sS'3.1'
p912
F0.25
sS'2.3'
p913
F0.10000000000000001
sS'2.2'
p914
F0.14285714285714285
sS'2.7'
p915
F0.10000000000000001
sS'2.6'
p916
F0.090909090909090912
sS'2.5'
p917
F0.20000000000000001
sS'2.4'
p918
F0.1111111111111111
sS'4.5'
p919
F0.083333333333333329
sS'4.4'
p920
F0.0625
sS'5.2'
p921
F0.14285714285714285
sS'5.3'
p922
F0.17647058823529413
sS'5.4'
p923
F0.125
sS'5.5'
p924
F0.33333333333333331
sS'5.6'
p925
F0.15384615384615385
sS'1.11'
p926
F0.047619047619047616
sS'5.8'
p927
F0.14285714285714285
sS'5.9'
p928
F0.16666666666666666
sS'3.8'
p929
F0.032258064516129031
sS'3.9'
p930
F0.0625
sS'5.12'
p931
F0.038461538461538464
sS'5.13'
p932
F0.016666666666666666
sS'5.10'
p933
F0.0625
sS'1.12'
p934
F0.16666666666666666
sS'1.13'
p935
F0.33333333333333331
sS'6.7'
p936
F0.035714285714285712
sS'4.3'
p937
F0.16666666666666666
sS'3.7'
p938
F0.052631578947368418
sS'4.2'
p939
F0.33333333333333331
sS'3.4'
p940
F0.16666666666666666
sS'6.4'
p941
F0.033333333333333333
sS'1.10'
p942
F0.33333333333333331
sS'3.3'
p943
F0.090909090909090912
ssS'059-11070771'
p944
(dp945
S'1.4'
p946
F0.33333333333333331
sS'5.1'
p947
F0.1111111111111111
sS'5.2'
p948
F0.052631578947368418
sS'4.1'
p949
F0.20000000000000001
sS'1.1'
p950
F0.11764705882352941
sS'1.2'
p951
F0.14285714285714285
sS'1.3'
p952
F0.5
sS'4.2'
p953
F0.071428571428571425
sS'7.2'
p954
F0.5
sS'6.3'
p955
F0.18181818181818182
sS'6.2'
p956
F0.035714285714285712
sS'3.1'
p957
F0.090909090909090912
sS'2.2'
p958
F0.40000000000000002
ssS'067-11978590'
p959
(dp960
S'1.4'
p961
F0.20000000000000001
sS'1.1'
p962
F0.125
sS'1.2'
p963
F0.083333333333333329
sS'1.3'
p964
F0.15789473684210525
sS'6.7'
p965
F0.058823529411764705
sS'3.7'
p966
F1
sS'7.1'
p967
F0.14285714285714285
sS'3.2'
p968
F0.25
sS'6.2'
p969
F0.058823529411764705
sS'6.1'
p970
F0.0625
sS'3.1'
p971
F0.1111111111111111
sS'2.3'
p972
F0.041666666666666664
sS'2.6'
p973
F0.090909090909090912
sS'2.5'
p974
F0.07407407407407407
sS'2.4'
p975
F0.10000000000000001
sS'4.5'
p976
F0.040000000000000001
sS'4.4'
p977
F0.058823529411764705
sS'5.2'
p978
F0.081081081081081086
sS'5.3'
p979
F0.0625
sS'4.1'
p980
F0.5
sS'5.5'
p981
F0.045454545454545456
sS'5.7'
p982
F1
sS'5.8'
p983
F0.16666666666666666
sS'5.9'
p984
F1
sS'6.9'
p985
F0.043478260869565216
sS'7.4'
p986
F0.052631578947368418
sS'5.1'
p987
F0.10000000000000001
sS'6.12'
p988
F0.16666666666666666
sS'6.10'
p989
F0.1111111111111111
sS'6.14'
p990
F0.14285714285714285
sS'5.10'
p991
F0.2857142857142857
sS'5.11'
p992
F1.5
sS'5.4'
p993
F0.20000000000000001
sS'6.6'
p994
F0.026315789473684209
sS'3.5'
p995
F0.16666666666666666
sS'3.3'
p996
F0.125
ss.