(dp0
S'080-5970135'
p1
(dp2
S'7.1'
p3
F0.07692307692307693
sS'5.1'
p4
F0.3333333333333333
sS'8.3'
p5
F0.025
sS'8.2'
p6
F0.2
sS'8.5'
p7
F0.1111111111111111
sS'1.1'
p8
F0.07317073170731707
sS'1.3'
p9
F0.046511627906976744
sS'4.2'
p10
F0.2
sS'5.2'
p11
F0.25
sS'8.1'
p12
F0.2
sS'7.2'
p13
F0.5
sS'6.4'
p14
F1.0
sS'3.2'
p15
F0.42857142857142855
sS'9.4'
p16
F0.07142857142857142
sS'6.3'
p17
F0.2857142857142857
sS'8.4'
p18
F0.07407407407407407
sS'2.5'
p19
F0.06451612903225806
sS'2.4'
p20
F0.18181818181818182
ssS'066-15270802'
p21
(dp22
S'1.5'
p23
F0.2
sS'1.6'
p24
F0.05555555555555555
sS'5.4'
p25
F1.0
sS'1.1'
p26
F0.3333333333333333
sS'1.2'
p27
F0.14285714285714285
sS'4.2'
p28
F0.04
sS'1.3'
p29
F0.12
sS'7.1'
p30
F1.0
sS'3.2'
p31
F0.09090909090909091
sS'6.2'
p32
F0.03571428571428571
sS'6.1'
p33
F0.10344827586206896
sS'3.1'
p34
F0.17647058823529413
sS'2.3'
p35
F0.16666666666666666
sS'2.2'
p36
F0.09090909090909091
sS'2.5'
p37
F1.0
ssS'059-9045120'
p38
(dp39
S'4.5'
p40
F0.13333333333333333
sS'4.4'
p41
F0.2857142857142857
sS'4.7'
p42
F0.125
sS'4.6'
p43
F0.14285714285714285
sS'1.1'
p44
F0.09523809523809523
sS'4.3'
p45
F0.14285714285714285
sS'1.3'
p46
F0.07407407407407407
sS'1.14'
p47
F0.125
sS'5.9'
p48
F0.3333333333333333
sS'5.7'
p49
F0.06666666666666667
sS'4.9'
p50
F0.15384615384615385
sS'4.8'
p51
F1.0
sS'5.2'
p52
F0.10526315789473684
sS'5.6'
p53
F0.0625
sS'5.1'
p54
F1.0
sS'5.3'
p55
F0.03571428571428571
sS'2.3'
p56
F0.2
sS'2.2'
p57
F0.15789473684210525
sS'5.8'
p58
F0.058823529411764705
sS'2.4'
p59
F0.07142857142857142
ssS'075-16233750'
p60
(dp61
S'1.4'
p62
F0.14285714285714285
sS'5.1'
p63
F0.14285714285714285
sS'5.2'
p64
F0.18181818181818182
sS'1.7'
p65
F0.2
sS'4.1'
p66
F0.2727272727272727
sS'1.2'
p67
F0.2727272727272727
sS'1.3'
p68
F0.15384615384615385
sS'4.2'
p69
F0.5
sS'1.8'
p70
F0.17647058823529413
sS'1.6'
p71
F0.25
sS'5.4'
p72
F0.16666666666666666
sS'3.4'
p73
F0.125
sS'5.3'
p74
F0.14285714285714285
sS'3.2'
p75
F0.2
sS'3.3'
p76
F0.2222222222222222
sS'3.1'
p77
F0.1
sS'2.3'
p78
F0.375
sS'2.2'
p79
F0.6
sS'2.4'
p80
F0.07142857142857142
sS'1.5'
p81
F0.05555555555555555
ssS'076-4622322'
p82
(dp83
S'1.7'
p84
F0.16666666666666666
sS'1.1'
p85
F0.06666666666666667
sS'1.9'
p86
F0.125
sS'7.2'
p87
F0.3333333333333333
sS'7.3'
p88
F0.16666666666666666
sS'3.4'
p89
F0.2
sS'3.5'
p90
F0.10714285714285714
sS'3.2'
p91
F0.3333333333333333
sS'6.2'
p92
F0.08333333333333333
sS'7.4'
p93
F0.3333333333333333
sS'7.5'
p94
F0.08333333333333333
sS'2.3'
p95
F0.05263157894736842
sS'2.2'
p96
F0.15789473684210525
sS'2.5'
p97
F0.14285714285714285
sS'2.4'
p98
F0.11764705882352941
sS'1.16'
p99
F0.06666666666666667
sS'1.17'
p100
F0.1111111111111111
sS'1.14'
p101
F0.05555555555555555
sS'5.3'
p102
F0.15384615384615385
sS'4.1'
p103
F0.4
sS'5.5'
p104
F0.14285714285714285
sS'1.10'
p105
F0.07142857142857142
sS'1.18'
p106
F0.08695652173913043
sS'5.4'
p107
F0.09090909090909091
sS'1.15'
p108
F0.25
sS'1.12'
p109
F0.1111111111111111
sS'1.13'
p110
F0.045454545454545456
sS'3.6'
p111
F0.08
sS'3.3'
p112
F0.3333333333333333
ssS'074-6324762'
p113
(dp114
S'1.4'
p115
F0.125
sS'1.5'
p116
F0.16666666666666666
sS'1.6'
p117
F0.06666666666666667
sS'1.7'
p118
F0.125
sS'1.1'
p119
F0.6666666666666666
sS'1.2'
p120
F0.08333333333333333
sS'1.3'
p121
F0.07142857142857142
sS'1.9'
p122
F0.05263157894736842
sS'3.7'
p123
F0.25
sS'3.5'
p124
F0.25
sS'2.3'
p125
F0.15789473684210525
sS'2.2'
p126
F2.0
sS'2.6'
p127
F0.06060606060606061
sS'3.8'
p128
F0.09090909090909091
sS'2.4'
p129
F0.05555555555555555
sS'4.5'
p130
F0.0625
sS'4.4'
p131
F0.05555555555555555
sS'4.7'
p132
F0.07692307692307693
sS'4.6'
p133
F0.1111111111111111
sS'1.11'
p134
F0.18181818181818182
sS'4.9'
p135
F0.125
sS'4.8'
p136
F0.06666666666666667
sS'2.5'
p137
F0.09090909090909091
sS'5.1'
p138
F0.027777777777777776
sS'4.10'
p139
F0.09090909090909091
ssS'078-1321398'
p140
(dp141
S'5.2'
p142
F0.11764705882352941
sS'5.3'
p143
F0.4
sS'5.4'
p144
F0.25
sS'1.1'
p145
F0.07142857142857142
sS'1.2'
p146
F0.375
sS'4.2'
p147
F0.3333333333333333
sS'1.3'
p148
F0.2
sS'4.3'
p149
F0.25
sS'6.6'
p150
F0.125
sS'3.1'
p151
F0.15384615384615385
sS'2.2'
p152
F0.21428571428571427
sS'2.1'
p153
F0.2857142857142857
sS'5.5'
p154
F0.21428571428571427
ssS'078-3797219'
p155
(dp156
S'1.4'
p157
F0.08823529411764706
sS'1.2'
p158
F0.3333333333333333
sS'1.3'
p159
F0.1111111111111111
sS'7.2'
p160
F0.6666666666666666
sS'7.3'
p161
F0.375
sS'3.4'
p162
F0.05263157894736842
sS'7.1'
p163
F0.25
sS'3.2'
p164
F0.5
sS'7.7'
p165
F0.23076923076923078
sS'7.4'
p166
F2.0
sS'7.5'
p167
F1.0
sS'2.3'
p168
F1.5
sS'7.8'
p169
F0.2727272727272727
sS'7.9'
p170
F0.3
sS'4.6'
p171
F0.2
sS'4.4'
p172
F0.21428571428571427
sS'5.2'
p173
F0.12
sS'5.3'
p174
F0.25
sS'4.1'
p175
F0.23076923076923078
sS'4.3'
p176
F0.25
sS'4.2'
p177
F0.16666666666666666
sS'11.4'
p178
F0.125
sS'11.5'
p179
F0.027777777777777776
sS'11.6'
p180
F0.5
sS'11.7'
p181
F1.0
sS'11.1'
p182
F0.18181818181818182
sS'11.2'
p183
F0.047619047619047616
sS'11.3'
p184
F0.07142857142857142
sS'9.1'
p185
F0.16666666666666666
sS'10.3'
p186
F0.08333333333333333
sS'10.2'
p187
F0.09090909090909091
sS'8.6'
p188
F0.08333333333333333
sS'6.3'
p189
F0.125
sS'7.6'
p190
F0.23076923076923078
ssS'074-0998972'
p191
(dp192
S'1.4'
p193
F0.05555555555555555
sS'1.6'
p194
F0.11764705882352941
sS'1.1'
p195
F0.1875
sS'1.2'
p196
F0.17647058823529413
sS'1.3'
p197
F0.18181818181818182
sS'1.8'
p198
F0.15384615384615385
sS'3.6'
p199
F0.2727272727272727
sS'3.7'
p200
F0.2
sS'3.4'
p201
F0.10344827586206896
sS'3.5'
p202
F0.14285714285714285
sS'6.3'
p203
F0.12
sS'3.3'
p204
F0.15
sS'3.1'
p205
F0.05263157894736842
sS'2.3'
p206
F0.25
sS'2.2'
p207
F0.17647058823529413
sS'2.1'
p208
F0.06521739130434782
sS'2.7'
p209
F0.3333333333333333
sS'2.6'
p210
F1.0
sS'3.8'
p211
F0.11764705882352941
sS'3.9'
p212
F0.11764705882352941
sS'5.1'
p213
F0.09090909090909091
sS'5.2'
p214
F0.06666666666666667
sS'2.4'
p215
F0.16666666666666666
sS'6.4'
p216
F0.027777777777777776
ssS'058-13714734'
p217
(dp218
S'1.4'
p219
F0.13043478260869565
sS'1.3'
p220
F0.07317073170731707
sS'3.6'
p221
F0.07692307692307693
sS'3.7'
p222
F0.3
sS'6.5'
p223
F0.5
sS'6.4'
p224
F0.14285714285714285
sS'6.3'
p225
F0.14285714285714285
sS'2.3'
p226
F0.06666666666666667
sS'2.2'
p227
F0.10526315789473684
sS'6.9'
p228
F0.25
sS'2.4'
p229
F0.05555555555555555
sS'5.2'
p230
F0.06666666666666667
sS'5.3'
p231
F0.038461538461538464
sS'5.5'
p232
F0.2222222222222222
sS'4.3'
p233
F0.15384615384615385
sS'5.7'
p234
F0.09090909090909091
sS'5.8'
p235
F0.05555555555555555
sS'5.9'
p236
F0.06451612903225806
sS'6.8'
p237
F0.2
sS'6.13'
p238
F0.047619047619047616
sS'6.12'
p239
F0.15384615384615385
sS'6.11'
p240
F0.125
sS'6.10'
p241
F0.125
sS'6.14'
p242
F0.14285714285714285
sS'5.10'
p243
F0.06666666666666667
sS'6.7'
p244
F0.3333333333333333
sS'5.6'
p245
F0.13333333333333333
sS'6.6'
p246
F0.3333333333333333
ssS'060-0021651'
p247
(dp248
S'1.4'
p249
F0.10526315789473684
sS'1.5'
p250
F0.18181818181818182
sS'1.1'
p251
F0.125
sS'1.3'
p252
F0.17647058823529413
sS'3.6'
p253
F0.17647058823529413
sS'7.1'
p254
F0.125
sS'3.2'
p255
F0.16666666666666666
sS'6.2'
p256
F0.09523809523809523
sS'6.1'
p257
F0.2857142857142857
sS'3.1'
p258
F0.5
sS'2.3'
p259
F0.09090909090909091
sS'2.2'
p260
F0.125
sS'2.1'
p261
F0.14285714285714285
sS'8.1'
p262
F0.10526315789473684
sS'4.4'
p263
F0.09090909090909091
sS'5.2'
p264
F0.11764705882352941
sS'5.3'
p265
F0.08333333333333333
sS'5.4'
p266
F0.07692307692307693
sS'5.5'
p267
F0.07692307692307693
sS'4.3'
p268
F0.2
sS'5.1'
p269
F0.05555555555555555
sS'8.3'
p270
F0.2857142857142857
sS'8.2'
p271
F0.1111111111111111
sS'5.6'
p272
F0.1111111111111111
ssS'079-14194071'
p273
(dp274
S'5.6'
p275
F0.0625
sS'5.2'
p276
F0.2222222222222222
sS'5.3'
p277
F0.17647058823529413
sS'5.4'
p278
F0.05555555555555555
sS'4.3'
p279
F0.06896551724137931
sS'1.2'
p280
F0.2
sS'5.7'
p281
F0.13636363636363635
sS'1.3'
p282
F0.14285714285714285
sS'4.2'
p283
F0.10344827586206896
sS'3.2'
p284
F3.0
sS'2.1'
p285
F2.0
sS'5.5'
p286
F0.06896551724137931
ssS'068-16207900'
p287
(dp288
S'1.4'
p289
F0.23076923076923078
sS'1.5'
p290
F0.1875
sS'1.6'
p291
F0.3333333333333333
sS'1.2'
p292
F0.25
sS'1.3'
p293
F0.2
sS'3.6'
p294
F0.16666666666666666
sS'3.7'
p295
F0.14285714285714285
sS'3.4'
p296
F0.25
sS'3.5'
p297
F0.18181818181818182
sS'3.2'
p298
F0.09090909090909091
sS'5.22'
p299
F0.4
sS'3.1'
p300
F0.21428571428571427
sS'2.7'
p301
F0.07692307692307693
sS'2.6'
p302
F0.2727272727272727
sS'4.5'
p303
F0.15384615384615385
sS'4.4'
p304
F0.15384615384615385
sS'4.6'
p305
F0.5
sS'4.3'
p306
F0.15384615384615385
sS'4.2'
p307
F0.4
sS'2.14'
p308
F0.6666666666666666
sS'2.13'
p309
F0.15384615384615385
sS'2.12'
p310
F0.3
sS'2.11'
p311
F0.25
sS'2.10'
p312
F0.16666666666666666
sS'5.11'
p313
F0.2
sS'5.16'
p314
F0.125
sS'5.17'
p315
F0.09090909090909091
sS'5.14'
p316
F0.1
sS'5.15'
p317
F0.08333333333333333
sS'5.18'
p318
F0.1111111111111111
sS'2.9'
p319
F0.07142857142857142
sS'2.8'
p320
F0.0625
sS'6.3'
p321
F1.0
sS'3.3'
p322
F0.1
ssS'026-4380722'
p323
(dp324
S'1.4'
p325
F0.16666666666666666
sS'1.5'
p326
F0.2
sS'5.2'
p327
F0.125
sS'5.3'
p328
F0.11764705882352941
sS'5.4'
p329
F0.1111111111111111
sS'1.1'
p330
F0.25
sS'1.2'
p331
F0.15
sS'1.3'
p332
F0.16666666666666666
sS'4.5'
p333
F0.2857142857142857
sS'1.8'
p334
F0.3333333333333333
sS'1.6'
p335
F0.15384615384615385
sS'5.1'
p336
F0.18181818181818182
sS'1.7'
p337
F0.07142857142857142
sS'3.1'
p338
F0.375
sS'4.4'
p339
F0.4
sS'2.1'
p340
F0.3333333333333333
sS'5.5'
p341
F0.14285714285714285
ssS'023-2964247'
p342
(dp343
S'1.4'
p344
F0.045454545454545456
sS'1.5'
p345
F0.08695652173913043
sS'1.1'
p346
F0.2222222222222222
sS'1.2'
p347
F0.1875
sS'1.3'
p348
F0.1
sS'7.2'
p349
F0.17647058823529413
sS'7.3'
p350
F1.0
sS'6.5'
p351
F0.125
sS'3.3'
p352
F0.16666666666666666
sS'6.1'
p353
F0.125
sS'3.1'
p354
F0.07142857142857142
sS'2.3'
p355
F0.21428571428571427
sS'2.2'
p356
F0.09090909090909091
sS'2.1'
p357
F0.4
sS'2.5'
p358
F0.06666666666666667
sS'2.4'
p359
F0.15789473684210525
sS'5.2'
p360
F0.16666666666666666
sS'5.3'
p361
F0.2
sS'4.1'
p362
F0.12
sS'5.5'
p363
F0.05555555555555555
sS'4.2'
p364
F0.5
sS'6.6'
p365
F0.10526315789473684
ssS'078-8112187'
p366
(dp367
S'5.1'
p368
F0.06666666666666667
sS'5.2'
p369
F0.3333333333333333
sS'4.1'
p370
F0.6
sS'1.1'
p371
F0.21428571428571427
sS'1.2'
p372
F1.5
sS'7.3'
p373
F0.10526315789473684
sS'6.3'
p374
F0.4
sS'7.2'
p375
F0.5
sS'6.6'
p376
F0.15384615384615385
sS'6.5'
p377
F2.0
sS'6.4'
p378
F0.5
sS'3.2'
p379
F0.2857142857142857
sS'3.1'
p380
F0.5
sS'2.2'
p381
F0.25
sS'2.1'
p382
F3.0
ssS'075-15948761'
p383
(dp384
S'1.5'
p385
F0.3333333333333333
sS'1.2'
p386
F2.0
sS'1.3'
p387
F0.05
sS'4.6'
p388
F0.06896551724137931
sS'6.7'
p389
F2.0
sS'6.5'
p390
F0.043478260869565216
sS'7.1'
p391
F0.0625
sS'3.2'
p392
F0.08695652173913043
sS'3.1'
p393
F0.1
sS'2.3'
p394
F0.13333333333333333
sS'2.2'
p395
F0.5
sS'2.6'
p396
F0.08333333333333333
sS'2.5'
p397
F0.75
sS'2.4'
p398
F0.25
sS'4.4'
p399
F0.2
sS'5.2'
p400
F0.07692307692307693
sS'5.3'
p401
F0.06451612903225806
sS'5.4'
p402
F0.5
sS'5.5'
p403
F0.03333333333333333
sS'4.3'
p404
F0.3333333333333333
sS'9.4'
p405
F0.023809523809523808
sS'9.5'
p406
F0.14285714285714285
sS'9.1'
p407
F0.23076923076923078
sS'9.2'
p408
F0.2222222222222222
sS'9.3'
p409
F0.05660377358490566
sS'5.1'
p410
F0.2222222222222222
sS'8.3'
p411
F0.10526315789473684
sS'8.2'
p412
F0.08695652173913043
sS'8.4'
p413
F0.05263157894736842
sS'6.4'
p414
F0.25
sS'4.7'
p415
F0.08333333333333333
ssS'079-4736087'
p416
(dp417
S'4.7'
p418
F0.09090909090909091
sS'4.6'
p419
F0.06818181818181818
sS'5.4'
p420
F0.375
sS'5.5'
p421
F0.125
sS'1.2'
p422
F0.125
sS'1.3'
p423
F0.125
sS'4.8'
p424
F0.043478260869565216
sS'6.3'
p425
F0.03773584905660377
sS'3.2'
p426
F0.14285714285714285
sS'6.2'
p427
F0.07142857142857142
sS'2.3'
p428
F0.06451612903225806
sS'2.2'
p429
F0.11538461538461539
sS'2.4'
p430
F0.05555555555555555
ssS'107-16164699'
p431
(dp432
S'1.4'
p433
F0.13043478260869565
sS'1.6'
p434
F0.16666666666666666
sS'1.2'
p435
F0.25
sS'1.3'
p436
F0.10714285714285714
sS'3.10'
p437
F0.2
sS'3.12'
p438
F0.2222222222222222
sS'3.13'
p439
F0.16666666666666666
sS'3.6'
p440
F0.2857142857142857
sS'3.7'
p441
F0.16666666666666666
sS'7.1'
p442
F2.0
sS'6.3'
p443
F0.125
sS'6.2'
p444
F0.5
sS'6.1'
p445
F0.5
sS'2.3'
p446
F1.0
sS'2.2'
p447
F0.15384615384615385
sS'2.5'
p448
F0.2857142857142857
sS'2.4'
p449
F0.4
sS'4.7'
p450
F0.25
sS'5.3'
p451
F0.15
sS'5.5'
p452
F0.125
sS'5.6'
p453
F0.058823529411764705
sS'4.8'
p454
F0.3333333333333333
sS'3.8'
p455
F0.375
sS'4.6'
p456
F0.05
ssS'070-4154814'
p457
(dp458
S'1.1'
p459
F0.06976744186046512
sS'1.2'
p460
F0.3
sS'1.3'
p461
F0.25
sS'3.10'
p462
F1.0
sS'3.11'
p463
F1.0
sS'3.12'
p464
F0.08695652173913043
sS'6.7'
p465
F0.13333333333333333
sS'6.6'
p466
F0.2
sS'6.5'
p467
F0.14285714285714285
sS'3.5'
p468
F0.09523809523809523
sS'2.3'
p469
F0.05263157894736842
sS'2.2'
p470
F0.09523809523809523
sS'2.1'
p471
F0.3
sS'6.9'
p472
F0.1111111111111111
sS'2.4'
p473
F0.09090909090909091
sS'4.5'
p474
F0.08823529411764706
sS'4.4'
p475
F0.1
sS'5.2'
p476
F0.3333333333333333
sS'5.3'
p477
F0.06666666666666667
sS'4.1'
p478
F0.07692307692307693
sS'4.3'
p479
F0.2
sS'4.2'
p480
F0.07142857142857142
sS'5.1'
p481
F0.05263157894736842
sS'4.6'
p482
F0.2
sS'3.6'
p483
F0.25
sS'3.4'
p484
F0.3333333333333333
sS'6.4'
p485
F0.2
ssS'061-10140940'
p486
(dp487
S'1.4'
p488
F0.07692307692307693
sS'1.5'
p489
F0.06666666666666667
sS'1.6'
p490
F0.3333333333333333
sS'1.7'
p491
F0.06666666666666667
sS'1.1'
p492
F0.2
sS'1.2'
p493
F0.06666666666666667
sS'1.3'
p494
F0.3333333333333333
sS'6.5'
p495
F0.07142857142857142
sS'6.4'
p496
F0.05555555555555555
sS'6.3'
p497
F0.07142857142857142
sS'3.3'
p498
F1.0
sS'6.1'
p499
F0.23076923076923078
sS'2.3'
p500
F0.15384615384615385
sS'2.1'
p501
F0.2222222222222222
sS'2.4'
p502
F0.21428571428571427
sS'4.5'
p503
F0.17647058823529413
sS'5.1'
p504
F0.23076923076923078
sS'5.2'
p505
F0.17647058823529413
sS'5.3'
p506
F0.15384615384615385
sS'4.1'
p507
F0.6
sS'1.10'
p508
F0.25
sS'4.2'
p509
F0.25
sS'4.4'
p510
F0.6666666666666666
sS'4.7'
p511
F0.058823529411764705
sS'4.6'
p512
F0.07692307692307693
sS'4.3'
p513
F1.0
sS'1.11'
p514
F0.6666666666666666
sS'3.4'
p515
F0.25
ssS'074-14150913'
p516
(dp517
S'5.2'
p518
F0.10526315789473684
sS'4.1'
p519
F0.0967741935483871
sS'1.1'
p520
F0.14285714285714285
sS'1.2'
p521
F0.12
sS'1.3'
p522
F0.15384615384615385
sS'6.5'
p523
F0.08333333333333333
sS'7.2'
p524
F0.16666666666666666
sS'6.6'
p525
F3.0
sS'3.4'
p526
F0.21428571428571427
sS'6.4'
p527
F0.14285714285714285
sS'6.3'
p528
F2.0
sS'6.2'
p529
F0.21428571428571427
sS'2.3'
p530
F0.08333333333333333
sS'2.1'
p531
F0.6
ssS'053-15927827'
p532
(dp533
S'1.5'
p534
F0.16666666666666666
sS'7.10'
p535
F0.25
sS'1.1'
p536
F0.12
sS'1.2'
p537
F0.15
sS'4.10'
p538
F0.3333333333333333
sS'3.10'
p539
F0.10526315789473684
sS'3.11'
p540
F0.07142857142857142
sS'6.7'
p541
F0.058823529411764705
sS'6.6'
p542
F0.10714285714285714
sS'6.5'
p543
F0.5
sS'2.8'
p544
F0.18181818181818182
sS'2.3'
p545
F0.2
sS'2.2'
p546
F0.3333333333333333
sS'7.9'
p547
F0.16666666666666666
sS'2.7'
p548
F0.5
sS'2.6'
p549
F0.21428571428571427
sS'3.8'
p550
F0.08333333333333333
sS'6.8'
p551
F0.3
sS'4.7'
p552
F3.0
sS'5.3'
p553
F0.05
sS'5.4'
p554
F0.07692307692307693
sS'5.5'
p555
F0.045454545454545456
sS'5.6'
p556
F0.4
sS'1.3'
p557
F0.1111111111111111
sS'4.9'
p558
F0.14285714285714285
sS'2.5'
p559
F0.25
sS'7.12'
p560
F0.05555555555555555
sS'3.9'
p561
F3.0
sS'2.10'
p562
F0.05263157894736842
sS'2.4'
p563
F0.42857142857142855
sS'5.2'
p564
F0.15789473684210525
sS'4.14'
p565
F0.05
sS'7.11'
p566
F0.2
sS'2.9'
p567
F0.07692307692307693
ssS'060-4302525'
p568
(dp569
S'1.4'
p570
F0.09090909090909091
sS'1.5'
p571
F0.07407407407407407
sS'1.6'
p572
F0.16666666666666666
sS'1.7'
p573
F0.25
sS'1.1'
p574
F0.14285714285714285
sS'1.2'
p575
F0.045454545454545456
sS'1.3'
p576
F0.125
sS'1.8'
p577
F0.125
sS'1.9'
p578
F0.05
sS'7.2'
p579
F0.16666666666666666
sS'3.4'
p580
F0.043478260869565216
sS'7.1'
p581
F0.18181818181818182
sS'6.3'
p582
F0.2222222222222222
sS'3.1'
p583
F0.3333333333333333
sS'2.2'
p584
F0.125
sS'2.1'
p585
F0.125
sS'2.6'
p586
F0.16666666666666666
sS'2.5'
p587
F0.13333333333333333
sS'8.1'
p588
F0.15384615384615385
sS'5.1'
p589
F0.07692307692307693
sS'5.2'
p590
F0.07142857142857142
sS'8.2'
p591
F0.09090909090909091
sS'4.1'
p592
F0.2
sS'4.2'
p593
F0.07142857142857142
sS'6.4'
p594
F0.043478260869565216
ssS'078-15693133'
p595
(dp596
S'1.4'
p597
F0.375
sS'4.4'
p598
F0.3
sS'5.2'
p599
F0.07407407407407407
sS'5.3'
p600
F0.2222222222222222
sS'1.2'
p601
F0.1111111111111111
sS'4.3'
p602
F2.0
sS'1.3'
p603
F0.3333333333333333
sS'4.10'
p604
F0.05
sS'4.9'
p605
F0.058823529411764705
sS'2.12'
p606
F0.2857142857142857
sS'5.1'
p607
F0.08695652173913043
sS'4.6'
p608
F1.0
sS'3.2'
p609
F0.5
sS'2.11'
p610
F0.2
sS'1.1'
p611
F0.125
sS'2.10'
p612
F0.08333333333333333
sS'2.6'
p613
F0.18181818181818182
sS'2.5'
p614
F0.2727272727272727
sS'2.4'
p615
F0.13636363636363635
ssS'078-6832141'
p616
(dp617
S'1.1'
p618
F0.17647058823529413
sS'7.1'
p619
F0.4
sS'3.2'
p620
F2.0
sS'3.3'
p621
F0.23076923076923078
sS'6.1'
p622
F0.1111111111111111
sS'3.1'
p623
F0.25
sS'2.2'
p624
F2.0
sS'2.1'
p625
F0.2
sS'8.11'
p626
F2.0
sS'8.10'
p627
F2.0
sS'8.13'
p628
F2.0
sS'8.12'
p629
F2.0
sS'4.5'
p630
F2.0
sS'4.4'
p631
F0.2857142857142857
sS'5.2'
p632
F0.75
sS'5.3'
p633
F2.0
sS'5.4'
p634
F2.0
sS'8.4'
p635
F2.0
sS'4.3'
p636
F2.0
sS'4.2'
p637
F0.42857142857142855
sS'8.9'
p638
F2.0
sS'8.8'
p639
F2.0
sS'8.14'
p640
F2.0
sS'8.1'
p641
F0.3333333333333333
sS'8.3'
p642
F2.0
sS'8.2'
p643
F2.0
sS'8.5'
p644
F2.0
sS'8.7'
p645
F2.0
sS'8.6'
p646
F2.0
sS'6.3'
p647
F1.0
sS'6.2'
p648
F0.2
ssS'094-2808305'
p649
(dp650
S'1.4'
p651
F0.23076923076923078
sS'4.1'
p652
F0.4
sS'4.14'
p653
F0.14285714285714285
sS'1.2'
p654
F0.1111111111111111
sS'4.2'
p655
F0.024390243902439025
sS'1.3'
p656
F0.16666666666666666
sS'4.28'
p657
F0.08333333333333333
sS'4.29'
p658
F0.16666666666666666
sS'3.2'
p659
F0.15384615384615385
sS'4.30'
p660
F0.058823529411764705
sS'2.5'
p661
F0.17647058823529413
sS'5.5'
p662
F0.125
ssS'071-10334272'
p663
(dp664
S'5.6'
p665
F0.1
sS'5.2'
p666
F0.13043478260869565
sS'5.3'
p667
F0.15789473684210525
sS'5.4'
p668
F0.15384615384615385
sS'5.5'
p669
F0.15789473684210525
sS'1.2'
p670
F0.13043478260869565
sS'4.2'
p671
F0.25
sS'5.8'
p672
F0.08695652173913043
sS'5.9'
p673
F0.07142857142857142
sS'1.3'
p674
F0.1111111111111111
sS'3.4'
p675
F0.05
sS'3.2'
p676
F0.17647058823529413
sS'5.7'
p677
F0.09090909090909091
sS'4.3'
p678
F0.038461538461538464
sS'2.2'
p679
F0.15789473684210525
sS'1.1'
p680
F0.5
ssS'007-7484738'
p681
(dp682
S'1.4'
p683
F0.09090909090909091
sS'1.5'
p684
F0.041666666666666664
sS'5.3'
p685
F0.16666666666666666
sS'5.4'
p686
F0.1111111111111111
sS'1.1'
p687
F0.15384615384615385
sS'1.2'
p688
F0.11538461538461539
sS'1.3'
p689
F0.125
sS'4.4'
p690
F0.07142857142857142
sS'5.5'
p691
F0.21428571428571427
sS'4.2'
p692
F0.058823529411764705
sS'3.3'
p693
F0.09090909090909091
sS'3.6'
p694
F0.5
sS'3.7'
p695
F0.0625
sS'3.8'
p696
F0.3333333333333333
sS'4.3'
p697
F0.07142857142857142
sS'2.3'
p698
F0.0625
sS'2.2'
p699
F0.018867924528301886
sS'2.5'
p700
F0.25
sS'2.4'
p701
F0.047619047619047616
ssS'077-4500595'
p702
(dp703
S'5.6'
p704
F0.1
sS'1.5'
p705
F0.09090909090909091
sS'1.6'
p706
F0.1875
sS'5.4'
p707
F0.10526315789473684
sS'1.1'
p708
F0.16666666666666666
sS'1.2'
p709
F0.08
sS'4.2'
p710
F0.1875
sS'1.3'
p711
F0.2222222222222222
sS'3.1'
p712
F0.08333333333333333
sS'2.8'
p713
F0.13043478260869565
sS'3.2'
p714
F0.15
sS'5.7'
p715
F0.038461538461538464
sS'4.3'
p716
F0.09090909090909091
sS'2.7'
p717
F0.14285714285714285
sS'5.5'
p718
F0.05714285714285714
ssS'043-10248963'
p719
(dp720
S'8.1'
p721
F0.25
sS'5.1'
p722
F0.125
sS'8.2'
p723
F1.0
sS'4.1'
p724
F0.07142857142857142
sS'1.1'
p725
F0.17647058823529413
sS'1.2'
p726
F0.16666666666666666
sS'7.5'
p727
F0.047619047619047616
sS'7.2'
p728
F0.15384615384615385
sS'7.3'
p729
F0.05555555555555555
sS'7.1'
p730
F0.02
sS'6.3'
p731
F0.09090909090909091
sS'6.2'
p732
F0.1
sS'7.4'
p733
F0.15384615384615385
sS'3.1'
p734
F0.14285714285714285
sS'2.3'
p735
F0.07142857142857142
sS'2.2'
p736
F0.1111111111111111
sS'2.1'
p737
F0.09090909090909091
sS'7.7'
p738
F0.09090909090909091
sS'7.6'
p739
F0.08
sS'2.4'
p740
F0.2857142857142857
ssS'053-15491914'
p741
(dp742
S'8.1'
p743
F0.0625
sS'5.1'
p744
F0.05263157894736842
sS'4.7'
p745
F0.04
sS'4.6'
p746
F0.17647058823529413
sS'1.1'
p747
F0.1875
sS'1.2'
p748
F0.23076923076923078
sS'4.2'
p749
F0.09090909090909091
sS'6.13'
p750
F0.6666666666666666
sS'6.12'
p751
F0.1111111111111111
sS'3.14'
p752
F0.25
sS'3.15'
p753
F0.15384615384615385
sS'3.16'
p754
F1.0
sS'6.4'
p755
F0.5
sS'2.8'
p756
F0.1111111111111111
sS'6.15'
p757
F0.06666666666666667
sS'7.4'
p758
F0.16666666666666666
sS'2.7'
p759
F0.11764705882352941
sS'2.6'
p760
F0.02857142857142857
sS'3.8'
p761
F0.5
sS'6.8'
p762
F0.1
ssS'067-1027069'
p763
(dp764
S'1.1'
p765
F0.08571428571428572
sS'1.2'
p766
F0.06896551724137931
sS'1.3'
p767
F0.14285714285714285
sS'3.6'
p768
F0.1111111111111111
sS'6.6'
p769
F0.05555555555555555
sS'6.5'
p770
F0.14285714285714285
sS'3.5'
p771
F0.1111111111111111
sS'6.3'
p772
F0.1
sS'2.3'
p773
F0.16666666666666666
sS'2.2'
p774
F0.25
sS'2.1'
p775
F0.75
sS'3.8'
p776
F0.08333333333333333
sS'3.9'
p777
F0.047619047619047616
sS'5.2'
p778
F0.13636363636363635
sS'5.3'
p779
F0.17647058823529413
sS'5.4'
p780
F0.0625
sS'5.5'
p781
F0.16666666666666666
sS'5.6'
p782
F0.14285714285714285
sS'4.2'
p783
F0.045454545454545456
sS'5.9'
p784
F0.05
sS'2.4'
p785
F0.03225806451612903
sS'5.12'
p786
F0.1111111111111111
sS'5.13'
p787
F0.07692307692307693
sS'5.10'
p788
F0.14285714285714285
sS'5.11'
p789
F0.10526315789473684
sS'5.14'
p790
F0.027777777777777776
sS'5.15'
p791
F0.038461538461538464
sS'3.7'
p792
F0.03571428571428571
sS'5.7'
p793
F0.038461538461538464
sS'6.4'
p794
F0.015151515151515152
ssS'059-7186494'
p795
(dp796
S'1.4'
p797
F0.25
sS'1.5'
p798
F0.16666666666666666
sS'4.7'
p799
F0.14285714285714285
sS'4.5'
p800
F0.14285714285714285
sS'4.1'
p801
F0.3
sS'1.1'
p802
F0.25
sS'1.2'
p803
F0.2
sS'1.3'
p804
F1.0
sS'4.4'
p805
F0.2857142857142857
sS'4.2'
p806
F0.3333333333333333
sS'1.6'
p807
F0.07692307692307693
sS'4.3'
p808
F0.18181818181818182
sS'4.6'
p809
F0.15789473684210525
sS'3.1'
p810
F0.16666666666666666
sS'2.3'
p811
F0.125
sS'2.2'
p812
F0.3333333333333333
sS'2.1'
p813
F0.2727272727272727
ssS'074-2313297'
p814
(dp815
S'7.14'
p816
F0.037037037037037035
sS'7.15'
p817
F0.16666666666666666
sS'7.17'
p818
F0.125
sS'1.1'
p819
F0.0967741935483871
sS'1.2'
p820
F0.3333333333333333
sS'7.18'
p821
F0.034482758620689655
sS'3.4'
p822
F0.07142857142857142
sS'2.8'
p823
F0.1
sS'3.2'
p824
F0.037037037037037035
sS'3.3'
p825
F0.03571428571428571
sS'3.1'
p826
F0.08
sS'2.7'
p827
F0.23076923076923078
sS'2.6'
p828
F0.07692307692307693
sS'2.4'
p829
F0.09090909090909091
sS'4.5'
p830
F0.16666666666666666
sS'4.4'
p831
F0.1
sS'4.7'
p832
F0.14285714285714285
sS'4.6'
p833
F0.08333333333333333
sS'7.12'
p834
F0.047619047619047616
sS'4.3'
p835
F0.07142857142857142
sS'4.2'
p836
F0.1
sS'8.9'
p837
F0.043478260869565216
sS'8.11'
p838
F0.0625
sS'4.9'
p839
F0.041666666666666664
sS'4.8'
p840
F0.08333333333333333
sS'2.12'
p841
F0.09090909090909091
sS'2.11'
p842
F0.0625
sS'2.10'
p843
F0.05555555555555555
sS'8.6'
p844
F0.07692307692307693
sS'2.9'
p845
F0.1
sS'8.8'
p846
F0.058823529411764705
ssS'059-15393869'
p847
(dp848
S'5.1'
p849
F0.15384615384615385
sS'5.2'
p850
F0.75
sS'5.3'
p851
F0.1875
sS'4.1'
p852
F0.75
sS'1.2'
p853
F0.07142857142857142
sS'5.4'
p854
F0.23076923076923078
sS'1.14'
p855
F0.0625
sS'1.15'
p856
F0.06666666666666667
sS'6.2'
p857
F0.08333333333333333
sS'6.1'
p858
F0.375
sS'3.1'
p859
F0.75
sS'2.3'
p860
F0.09090909090909091
sS'2.2'
p861
F1.0
sS'2.1'
p862
F0.1875
ssS'015-2625401'
p863
(dp864
S'1.4'
p865
F1.0
sS'1.6'
p866
F0.0625
sS'1.7'
p867
F0.09090909090909091
sS'1.2'
p868
F0.07692307692307693
sS'1.3'
p869
F0.1111111111111111
sS'3.10'
p870
F0.08333333333333333
sS'3.11'
p871
F0.375
sS'1.8'
p872
F1.0
sS'1.9'
p873
F0.1111111111111111
sS'6.3'
p874
F0.10526315789473684
sS'6.2'
p875
F0.4
sS'2.7'
p876
F0.06666666666666667
sS'2.6'
p877
F0.10344827586206896
sS'2.5'
p878
F0.2
sS'2.4'
p879
F0.125
sS'1.16'
p880
F0.2727272727272727
sS'1.17'
p881
F0.375
sS'1.14'
p882
F0.5
sS'1.15'
p883
F0.05263157894736842
sS'1.12'
p884
F1.0
sS'1.13'
p885
F0.034482758620689655
sS'1.10'
p886
F0.034482758620689655
sS'1.11'
p887
F0.03125
sS'1.18'
p888
F0.1111111111111111
sS'4.1'
p889
F0.16666666666666666
sS'4.5'
p890
F0.25
sS'4.4'
p891
F0.13333333333333333
sS'5.3'
p892
F0.09375
sS'5.4'
p893
F0.047619047619047616
sS'5.5'
p894
F0.13636363636363635
sS'4.3'
p895
F0.16666666666666666
sS'4.2'
p896
F0.06666666666666667
ssS'063-1009111'
p897
(dp898
S'1.5'
p899
F0.05555555555555555
sS'1.1'
p900
F0.08695652173913043
sS'1.2'
p901
F0.0967741935483871
sS'1.3'
p902
F0.10344827586206896
sS'3.10'
p903
F0.07692307692307693
sS'3.11'
p904
F0.1
sS'3.6'
p905
F0.23076923076923078
sS'6.6'
p906
F0.03571428571428571
sS'6.5'
p907
F0.11538461538461539
sS'3.5'
p908
F0.09090909090909091
sS'6.3'
p909
F0.21428571428571427
sS'6.2'
p910
F0.13636363636363635
sS'3.1'
p911
F0.25
sS'2.3'
p912
F0.1
sS'2.2'
p913
F0.14285714285714285
sS'2.7'
p914
F0.1
sS'2.6'
p915
F0.09090909090909091
sS'2.5'
p916
F0.2
sS'2.4'
p917
F0.1111111111111111
sS'4.5'
p918
F0.08333333333333333
sS'4.4'
p919
F0.0625
sS'5.2'
p920
F0.14285714285714285
sS'5.3'
p921
F0.17647058823529413
sS'5.4'
p922
F0.125
sS'5.5'
p923
F0.3333333333333333
sS'5.6'
p924
F0.15384615384615385
sS'1.11'
p925
F0.047619047619047616
sS'5.8'
p926
F0.14285714285714285
sS'5.9'
p927
F0.16666666666666666
sS'3.8'
p928
F0.03225806451612903
sS'3.9'
p929
F0.0625
sS'5.12'
p930
F0.038461538461538464
sS'5.13'
p931
F0.016666666666666666
sS'5.10'
p932
F0.0625
sS'1.12'
p933
F0.16666666666666666
sS'1.13'
p934
F0.3333333333333333
sS'6.7'
p935
F0.03571428571428571
sS'4.3'
p936
F0.16666666666666666
sS'3.7'
p937
F0.05263157894736842
sS'4.2'
p938
F0.3333333333333333
sS'3.4'
p939
F0.16666666666666666
sS'6.4'
p940
F0.03333333333333333
sS'1.10'
p941
F0.3333333333333333
sS'3.3'
p942
F0.09090909090909091
ssS'059-11070771'
p943
(dp944
S'1.4'
p945
F0.3333333333333333
sS'5.1'
p946
F0.1111111111111111
sS'5.2'
p947
F0.05263157894736842
sS'4.1'
p948
F0.2
sS'1.1'
p949
F0.11764705882352941
sS'1.2'
p950
F0.14285714285714285
sS'1.3'
p951
F0.5
sS'4.2'
p952
F0.07142857142857142
sS'7.2'
p953
F0.5
sS'6.3'
p954
F0.18181818181818182
sS'6.2'
p955
F0.03571428571428571
sS'3.1'
p956
F0.09090909090909091
sS'2.2'
p957
F0.4
ssS'067-11978590'
p958
(dp959
S'1.4'
p960
F0.2
sS'1.1'
p961
F0.125
sS'1.2'
p962
F0.08333333333333333
sS'1.3'
p963
F0.15789473684210525
sS'6.7'
p964
F0.058823529411764705
sS'3.7'
p965
F1.0
sS'7.1'
p966
F0.14285714285714285
sS'3.2'
p967
F0.25
sS'6.2'
p968
F0.058823529411764705
sS'6.1'
p969
F0.0625
sS'3.1'
p970
F0.1111111111111111
sS'2.3'
p971
F0.041666666666666664
sS'2.6'
p972
F0.09090909090909091
sS'2.5'
p973
F0.07407407407407407
sS'2.4'
p974
F0.1
sS'4.5'
p975
F0.04
sS'4.4'
p976
F0.058823529411764705
sS'5.2'
p977
F0.08108108108108109
sS'5.3'
p978
F0.0625
sS'4.1'
p979
F0.5
sS'5.5'
p980
F0.045454545454545456
sS'5.7'
p981
F1.0
sS'5.8'
p982
F0.16666666666666666
sS'5.9'
p983
F1.0
sS'6.9'
p984
F0.043478260869565216
sS'7.4'
p985
F0.05263157894736842
sS'5.1'
p986
F0.1
sS'6.12'
p987
F0.16666666666666666
sS'6.10'
p988
F0.1111111111111111
sS'6.14'
p989
F0.14285714285714285
sS'5.10'
p990
F0.2857142857142857
sS'5.11'
p991
F1.5
sS'5.4'
p992
F0.2
sS'6.6'
p993
F0.02631578947368421
sS'3.5'
p994
F0.16666666666666666
sS'3.3'
p995
F0.125
ss.