(dp1
S'066-15270802'
p2
(dp3
S'1.4'
p4
F0
sS'1.5'
p5
F0.20000000000000001
sS'1.6'
p6
F0.055555555555555552
sS'1.7'
p7
F0
sS'1.1'
p8
F0.33333333333333331
sS'1.2'
p9
F0.14285714285714285
sS'1.3'
p10
F0.12
sS'1.8'
p11
F0
sS'1.9'
p12
F0
sS'6.7'
p13
F0
sS'6.6'
p14
F0
sS'2.9'
p15
F0
sS'2.8'
p16
F0
sS'3.2'
p17
F0.090909090909090912
sS'3.3'
p18
F0
sS'6.1'
p19
F0.10344827586206896
sS'3.1'
p20
F0.17647058823529413
sS'2.3'
p21
F0
sS'2.2'
p22
F0
sS'2.1'
p23
F0
sS'2.7'
p24
F0
sS'2.6'
p25
F0
sS'2.5'
p26
F0
sS'2.4'
p27
F0
sS'4.5'
p28
F0
sS'4.4'
p29
F0
sS'4.7'
p30
F0
sS'4.6'
p31
F0
sS'4.1'
p32
F0
sS'5.5'
p33
F0
sS'4.3'
p34
F0
sS'4.2'
p35
F0
sS'4.9'
p36
F0
sS'4.8'
p37
F0
sS'6.5'
p38
F0
sS'6.9'
p39
F0
sS'4.11'
p40
F0
sS'6.8'
p41
F0
sS'2.13'
p42
F1
sS'2.12'
p43
F0
sS'2.11'
p44
F0.16666666666666666
sS'2.10'
p45
F0.090909090909090912
sS'5.1'
p46
F0
sS'6.11'
p47
F0
sS'6.10'
p48
F0.035714285714285712
sS'5.2'
p49
F0
sS'5.3'
p50
F0
sS'4.10'
p51
F0.040000000000000001
sS'5.4'
p52
F1
sS'7.1'
p53
F1
sS'7.2'
p54
F0
sS'2.14'
p55
F0
sS'5.6'
p56
F0
sS'3.4'
p57
F0
sS'6.4'
p58
F0
sS'6.3'
p59
F0
sS'6.2'
p60
F0
ssS'080-5970135'
p61
(dp62
S'1.4'
p63
F0
sS'8.3'
p64
F0
sS'1.1'
p65
F0.073170731707317069
sS'1.2'
p66
F0
sS'1.3'
p67
F0.046511627906976744
sS'3.10'
p68
F0.42857142857142855
sS'3.11'
p69
F0
sS'9.14'
p70
F0
sS'3.1'
p71
F0
sS'9.12'
p72
F0.071428571428571425
sS'9.13'
p73
F0
sS'9.10'
p74
F0
sS'9.11'
p75
F0
sS'3.6'
p76
F0
sS'3.7'
p77
F0
sS'3.4'
p78
F0
sS'3.5'
p79
F0
sS'3.2'
p80
F0
sS'3.3'
p81
F0
sS'6.1'
p82
F0
sS'7.5'
p83
F0
sS'2.3'
p84
F0
sS'2.2'
p85
F0
sS'2.1'
p86
F0
sS'2.7'
p87
F0
sS'2.6'
p88
F0
sS'3.8'
p89
F0
sS'3.9'
p90
F0
sS'8.1'
p91
F0.20000000000000001
sS'5.1'
p92
F0.33333333333333331
sS'5.2'
p93
F0
sS'5.3'
p94
F0
sS'4.1'
p95
F0
sS'5.5'
p96
F0
sS'5.6'
p97
F0
sS'8.6'
p98
F0
sS'8.9'
p99
F0
sS'5.9'
p100
F0
sS'8.5'
p101
F0
sS'8.10'
p102
F0.20000000000000001
sS'9.8'
p103
F0
sS'2.5'
p104
F0.064516129032258063
sS'9.2'
p105
F0
sS'9.4'
p106
F0
sS'9.5'
p107
F0
sS'8.13'
p108
F0.1111111111111111
sS'2.4'
p109
F0.18181818181818182
sS'9.1'
p110
F0
sS'8.14'
p111
F0
sS'9.3'
p112
F0
sS'9.15'
p113
F0
sS'7.4'
p114
F0
sS'8.15'
p115
F0
sS'6.4'
p116
F1
sS'9.9'
p117
F0
sS'5.10'
p118
F0.25
sS'8.2'
p119
F0
sS'8.12'
p120
F0.07407407407407407
sS'5.4'
p121
F0
sS'9.6'
p122
F0
sS'8.4'
p123
F0
sS'7.2'
p124
F0.5
sS'9.7'
p125
F0
sS'2.8'
p126
F0
sS'8.7'
p127
F0
sS'7.3'
p128
F0
sS'5.7'
p129
F0
sS'2.9'
p130
F0
sS'5.8'
p131
F0
sS'7.1'
p132
F0.076923076923076927
sS'4.2'
p133
F0.20000000000000001
sS'8.8'
p134
F0
sS'6.3'
p135
F0.2857142857142857
sS'8.11'
p136
F0.025000000000000001
sS'6.2'
p137
F0
ssS'059-9045120'
p138
(dp139
S'1.4'
p140
F0
sS'1.5'
p141
F0
sS'1.6'
p142
F0
sS'1.7'
p143
F0
sS'4.15'
p144
F0.125
sS'1.1'
p145
F0.095238095238095233
sS'1.2'
p146
F0
sS'1.3'
p147
F0
sS'4.19'
p148
F0
sS'4.18'
p149
F0
sS'5.20'
p150
F0
sS'1.8'
p151
F0
sS'1.9'
p152
F0
sS'4.20'
p153
F0
sS'3.4'
p154
F0
sS'3.5'
p155
F0
sS'3.2'
p156
F0
sS'3.3'
p157
F0
sS'5.21'
p158
F0
sS'3.1'
p159
F0
sS'2.3'
p160
F0.20000000000000001
sS'2.2'
p161
F0.15789473684210525
sS'2.1'
p162
F0
sS'5.18'
p163
F0
sS'2.6'
p164
F0
sS'2.5'
p165
F0
sS'2.4'
p166
F0.071428571428571425
sS'1.16'
p167
F0
sS'1.17'
p168
F0
sS'5.2'
p169
F0
sS'1.15'
p170
F0
sS'1.12'
p171
F0
sS'1.13'
p172
F0
sS'1.10'
p173
F0
sS'1.11'
p174
F0.07407407407407407
sS'5.8'
p175
F0
sS'5.9'
p176
F0
sS'4.16'
p177
F1
sS'4.9'
p178
F0
sS'4.8'
p179
F0
sS'1.18'
p180
F0
sS'1.19'
p181
F0
sS'5.14'
p182
F0.0625
sS'5.23'
p183
F0
sS'4.11'
p184
F0.14285714285714285
sS'4.6'
p185
F0
sS'4.5'
p186
F0
sS'4.4'
p187
F0
sS'5.4'
p188
F0
sS'1.14'
p189
F0
sS'4.7'
p190
F0
sS'4.14'
p191
F0.14285714285714285
sS'5.13'
p192
F0
sS'5.10'
p193
F0.10526315789473684
sS'5.11'
p194
F0.035714285714285712
sS'5.16'
p195
F0.058823529411764705
sS'5.17'
p196
F0.33333333333333331
sS'4.12'
p197
F0.2857142857142857
sS'5.15'
p198
F0.066666666666666666
sS'4.10'
p199
F0
sS'4.1'
p200
F0
sS'4.22'
p201
F0
sS'4.23'
p202
F0
sS'4.24'
p203
F0
sS'5.3'
p204
F0
sS'5.5'
p205
F0
sS'5.12'
p206
F0
sS'5.6'
p207
F0
sS'5.7'
p208
F0
sS'5.19'
p209
F0
sS'5.25'
p210
F0
sS'4.17'
p211
F0.15384615384615385
sS'5.1'
p212
F1
sS'4.21'
p213
F0
sS'5.24'
p214
F0
sS'5.22'
p215
F0
sS'4.2'
p216
F0
sS'4.13'
p217
F0.13333333333333333
sS'4.3'
p218
F0
sS'1.23'
p219
F0
sS'1.22'
p220
F0
sS'1.21'
p221
F0.125
sS'1.20'
p222
F0
sS'1.24'
p223
F0
ssS'075-16233750'
p224
(dp225
S'4.11'
p226
F0
sS'3.19'
p227
F0
sS'4.13'
p228
F0
sS'4.12'
p229
F0
sS'4.15'
p230
F0
sS'4.14'
p231
F0
sS'4.17'
p232
F0
sS'4.16'
p233
F0
sS'3.10'
p234
F0.20000000000000001
sS'3.11'
p235
F0.22222222222222221
sS'3.12'
p236
F0.125
sS'3.13'
p237
F0
sS'3.14'
p238
F0
sS'3.15'
p239
F0
sS'3.16'
p240
F0
sS'3.17'
p241
F0
sS'3.6'
p242
F0
sS'3.7'
p243
F0
sS'3.4'
p244
F0
sS'3.5'
p245
F0
sS'3.2'
p246
F0
sS'3.3'
p247
F0
sS'3.1'
p248
F0.10000000000000001
sS'2.3'
p249
F0.375
sS'2.2'
p250
F0.59999999999999998
sS'2.1'
p251
F0
sS'2.6'
p252
F0
sS'2.5'
p253
F0
sS'2.4'
p254
F0.071428571428571425
sS'5.34'
p255
F0
sS'5.35'
p256
F0
sS'5.36'
p257
F0
sS'5.37'
p258
F0
sS'5.30'
p259
F0
sS'5.31'
p260
F0
sS'5.32'
p261
F0
sS'5.33'
p262
F0
sS'3.18'
p263
F0
sS'4.10'
p264
F0.5
sS'5.27'
p265
F0
sS'5.26'
p266
F0
sS'5.25'
p267
F0
sS'5.24'
p268
F0
sS'5.23'
p269
F0
sS'5.22'
p270
F0
sS'5.21'
p271
F0
sS'5.20'
p272
F0
sS'5.29'
p273
F0
sS'5.28'
p274
F0
sS'4.19'
p275
F0
sS'4.18'
p276
F0
sS'5.12'
p277
F0.16666666666666666
sS'5.13'
p278
F0
sS'5.10'
p279
F0.18181818181818182
sS'5.11'
p280
F0.14285714285714285
sS'5.16'
p281
F0
sS'5.17'
p282
F0
sS'5.14'
p283
F0
sS'5.15'
p284
F0
sS'5.18'
p285
F0
sS'5.19'
p286
F0
sS'4.21'
p287
F0
sS'1.4'
p288
F0.14285714285714285
sS'1.5'
p289
F0.055555555555555552
sS'1.6'
p290
F0.25
sS'1.7'
p291
F0.20000000000000001
sS'1.1'
p292
F0
sS'1.2'
p293
F0.27272727272727271
sS'1.3'
p294
F0.15384615384615385
sS'1.8'
p295
F0.17647058823529413
sS'1.9'
p296
F0
sS'4.5'
p297
F0
sS'4.4'
p298
F0
sS'4.7'
p299
F0
sS'4.6'
p300
F0
sS'5.4'
p301
F0
sS'5.5'
p302
F0
sS'4.3'
p303
F0
sS'4.2'
p304
F0
sS'5.8'
p305
F0
sS'5.9'
p306
F0
sS'4.9'
p307
F0
sS'4.8'
p308
F0
sS'3.8'
p309
F0
sS'3.9'
p310
F0
sS'5.1'
p311
F0.14285714285714285
sS'5.2'
p312
F0
sS'5.3'
p313
F0
sS'4.20'
p314
F0
sS'4.1'
p315
F0.27272727272727271
sS'4.22'
p316
F0
sS'4.23'
p317
F0
sS'5.6'
p318
F0
sS'5.7'
p319
F0
ssS'076-4622322'
p320
(dp321
S'1.4'
p322
F0
sS'1.5'
p323
F0
sS'1.6'
p324
F0
sS'1.7'
p325
F0
sS'7.10'
p326
F0.33333333333333331
sS'1.1'
p327
F0.066666666666666666
sS'1.2'
p328
F0.1111111111111111
sS'1.3'
p329
F0
sS'3.10'
p330
F0.33333333333333331
sS'3.11'
p331
F0.33333333333333331
sS'3.12'
p332
F0.20000000000000001
sS'3.13'
p333
F0.10714285714285714
sS'1.8'
p334
F0
sS'1.9'
p335
F0
sS'3.6'
p336
F0
sS'3.7'
p337
F0
sS'3.4'
p338
F0
sS'2.8'
p339
F0
sS'7.6'
p340
F0
sS'3.3'
p341
F0
sS'6.1'
p342
F0
sS'3.1'
p343
F0
sS'2.3'
p344
F0.052631578947368418
sS'2.2'
p345
F0.15789473684210525
sS'2.1'
p346
F0
sS'7.9'
p347
F0
sS'2.7'
p348
F0
sS'2.6'
p349
F0
sS'2.5'
p350
F0.14285714285714285
sS'2.4'
p351
F0.11764705882352941
sS'1.16'
p352
F0
sS'1.17'
p353
F0.125
sS'1.14'
p354
F0
sS'1.15'
p355
F0.16666666666666666
sS'1.12'
p356
F0
sS'1.13'
p357
F0
sS'1.10'
p358
F0
sS'1.11'
p359
F0
sS'1.18'
p360
F0.071428571428571425
sS'1.19'
p361
F0
sS'7.8'
p362
F0
sS'3.8'
p363
F0
sS'7.7'
p364
F0
sS'7.4'
p365
F0.083333333333333329
sS'3.9'
p366
F0
sS'5.1'
p367
F0
sS'6.2'
p368
F0.083333333333333329
sS'5.4'
p369
F0.090909090909090912
sS'5.2'
p370
F0
sS'5.3'
p371
F0.15384615384615385
sS'7.5'
p372
F0
sS'4.1'
p373
F0.40000000000000002
sS'3.2'
p374
F0.080000000000000002
sS'5.5'
p375
F0.14285714285714285
sS'7.2'
p376
F0.16666666666666666
sS'5.6'
p377
F0
sS'7.3'
p378
F0.33333333333333331
sS'5.7'
p379
F0
sS'6.3'
p380
F0
sS'7.1'
p381
F0
sS'3.5'
p382
F0
sS'1.23'
p383
F0.066666666666666666
sS'1.22'
p384
F0.25
sS'1.21'
p385
F0.055555555555555552
sS'1.20'
p386
F0.045454545454545456
sS'1.25'
p387
F0.086956521739130432
sS'1.24'
p388
F0.1111111111111111
ssS'023-2964247'
p389
(dp390
S'1.4'
p391
F0.045454545454545456
sS'1.5'
p392
F0.086956521739130432
sS'1.6'
p393
F0
sS'1.7'
p394
F0
sS'4.15'
p395
F0
sS'1.1'
p396
F0.22222222222222221
sS'1.2'
p397
F0.1875
sS'1.3'
p398
F0.10000000000000001
sS'3.10'
p399
F0
sS'3.11'
p400
F0.16666666666666666
sS'3.12'
p401
F0
sS'3.13'
p402
F0
sS'1.8'
p403
F0
sS'3.15'
p404
F0
sS'3.16'
p405
F0
sS'3.17'
p406
F0
sS'3.6'
p407
F0
sS'3.7'
p408
F0
sS'2.9'
p409
F0
sS'2.8'
p410
F0
sS'3.2'
p411
F0
sS'3.3'
p412
F0
sS'6.1'
p413
F0.125
sS'3.1'
p414
F0.071428571428571425
sS'2.3'
p415
F0
sS'2.2'
p416
F0
sS'2.1'
p417
F0.40000000000000002
sS'2.7'
p418
F0
sS'2.6'
p419
F0
sS'2.5'
p420
F0
sS'2.4'
p421
F0
sS'4.5'
p422
F0
sS'4.4'
p423
F0
sS'4.7'
p424
F0
sS'4.6'
p425
F0
sS'4.1'
p426
F0.12
sS'4.17'
p427
F0
sS'4.3'
p428
F0
sS'4.2'
p429
F0
sS'3.19'
p430
F0
sS'4.16'
p431
F0
sS'4.9'
p432
F0
sS'4.8'
p433
F0
sS'4.19'
p434
F0
sS'6.5'
p435
F0.125
sS'3.8'
p436
F0
sS'4.18'
p437
F0
sS'6.8'
p438
F0
sS'6.4'
p439
F0
sS'4.11'
p440
F0
sS'3.9'
p441
F0
sS'2.13'
p442
F0.066666666666666666
sS'2.12'
p443
F0.15789473684210525
sS'2.11'
p444
F0.21428571428571427
sS'2.10'
p445
F0.090909090909090912
sS'5.1'
p446
F0
sS'3.14'
p447
F0
sS'7.4'
p448
F0
sS'5.2'
p449
F0.16666666666666666
sS'4.14'
p450
F0
sS'5.3'
p451
F0.20000000000000001
sS'4.20'
p452
F0
sS'4.12'
p453
F0
sS'4.10'
p454
F0.5
sS'5.4'
p455
F0
sS'4.22'
p456
F0
sS'4.23'
p457
F0
sS'4.24'
p458
F0
sS'4.25'
p459
F0
sS'7.3'
p460
F1
sS'3.18'
p461
F0
sS'7.2'
p462
F0.17647058823529413
sS'2.14'
p463
F0
sS'5.6'
p464
F0
sS'6.6'
p465
F0.10526315789473684
sS'5.5'
p466
F0.055555555555555552
sS'5.7'
p467
F0
sS'3.4'
p468
F0
sS'4.21'
p469
F0
sS'7.1'
p470
F0
sS'3.5'
p471
F0
sS'4.13'
p472
F0
sS'6.7'
p473
F0
sS'6.3'
p474
F0
sS'6.2'
p475
F0
ssS'078-1321398'
p476
(dp477
S'6.7'
p478
F0
sS'6.6'
p479
F0
sS'6.5'
p480
F0
sS'6.4'
p481
F0
sS'6.3'
p482
F0
sS'6.2'
p483
F0
sS'6.1'
p484
F0
sS'6.9'
p485
F0
sS'6.8'
p486
F0
sS'1.10'
p487
F0.375
sS'1.11'
p488
F0.20000000000000001
sS'2.14'
p489
F0
sS'2.13'
p490
F0
sS'2.12'
p491
F0
sS'2.11'
p492
F0
sS'2.10'
p493
F0.21428571428571427
sS'3.10'
p494
F0
sS'3.11'
p495
F0
sS'3.12'
p496
F0
sS'3.13'
p497
F0
sS'3.14'
p498
F0
sS'3.15'
p499
F0
sS'3.16'
p500
F0
sS'3.17'
p501
F0
sS'3.6'
p502
F0
sS'3.7'
p503
F0
sS'2.9'
p504
F0
sS'2.8'
p505
F0
sS'3.2'
p506
F0
sS'3.3'
p507
F0
sS'3.1'
p508
F0.15384615384615385
sS'2.3'
p509
F0
sS'2.2'
p510
F0
sS'2.1'
p511
F0.2857142857142857
sS'2.7'
p512
F0
sS'2.6'
p513
F0
sS'2.5'
p514
F0
sS'2.4'
p515
F0
sS'5.23'
p516
F0
sS'5.22'
p517
F0
sS'5.21'
p518
F0
sS'5.20'
p519
F0
sS'6.13'
p520
F0
sS'6.12'
p521
F0
sS'6.11'
p522
F0
sS'6.10'
p523
F0
sS'6.17'
p524
F0
sS'6.16'
p525
F0
sS'6.15'
p526
F0
sS'6.14'
p527
F0.125
sS'5.12'
p528
F0.25
sS'5.13'
p529
F0.21428571428571427
sS'5.10'
p530
F0.11764705882352941
sS'5.11'
p531
F0.40000000000000002
sS'5.16'
p532
F0
sS'5.17'
p533
F0
sS'5.14'
p534
F0
sS'5.15'
p535
F0
sS'5.18'
p536
F0
sS'5.19'
p537
F0
sS'3.4'
p538
F0
sS'3.5'
p539
F0
sS'1.4'
p540
F0
sS'1.5'
p541
F0
sS'1.6'
p542
F0
sS'1.7'
p543
F0
sS'1.1'
p544
F0.071428571428571425
sS'1.2'
p545
F0
sS'1.3'
p546
F0
sS'1.8'
p547
F0
sS'1.9'
p548
F0
sS'4.5'
p549
F0
sS'4.4'
p550
F0
sS'5.2'
p551
F0
sS'5.3'
p552
F0
sS'4.1'
p553
F0
sS'5.5'
p554
F0
sS'5.6'
p555
F0
sS'5.7'
p556
F0
sS'5.8'
p557
F0
sS'5.9'
p558
F0
sS'3.8'
p559
F0
sS'3.9'
p560
F0
sS'5.1'
p561
F0
sS'5.4'
p562
F0
sS'4.3'
p563
F0.25
sS'4.2'
p564
F0.33333333333333331
ssS'074-0998972'
p565
(dp566
S'1.4'
p567
F0
sS'1.5'
p568
F0.11764705882352941
sS'1.6'
p569
F0
sS'1.7'
p570
F0.15384615384615385
sS'1.1'
p571
F0.1875
sS'1.2'
p572
F0.18181818181818182
sS'1.3'
p573
F0.055555555555555552
sS'3.10'
p574
F0
sS'3.11'
p575
F0.14999999999999999
sS'3.12'
p576
F0.10344827586206896
sS'1.8'
p577
F0
sS'1.9'
p578
F0
sS'3.6'
p579
F0.11764705882352941
sS'3.7'
p580
F0
sS'2.9'
p581
F0
sS'2.8'
p582
F0
sS'3.2'
p583
F0.14285714285714285
sS'3.3'
p584
F0.27272727272727271
sS'6.1'
p585
F0
sS'3.1'
p586
F0.052631578947368418
sS'2.3'
p587
F0
sS'2.2'
p588
F0
sS'2.1'
p589
F0.065217391304347824
sS'2.7'
p590
F0
sS'2.6'
p591
F0
sS'2.5'
p592
F0
sS'2.4'
p593
F0
sS'5.1'
p594
F0.090909090909090912
sS'5.2'
p595
F0.066666666666666666
sS'5.3'
p596
F0
sS'4.1'
p597
F0
sS'5.5'
p598
F0
sS'1.10'
p599
F0.17647058823529413
sS'5.7'
p600
F0
sS'6.5'
p601
F0
sS'3.8'
p602
F0
sS'2.19'
p603
F0
sS'2.18'
p604
F0
sS'2.17'
p605
F0
sS'2.16'
p606
F0
sS'2.15'
p607
F0.33333333333333331
sS'2.14'
p608
F1
sS'2.13'
p609
F0
sS'2.12'
p610
F0.16666666666666666
sS'2.11'
p611
F0.25
sS'2.10'
p612
F0.17647058823529413
sS'5.4'
p613
F0
sS'3.9'
p614
F0
sS'5.6'
p615
F0
sS'3.4'
p616
F0.20000000000000001
sS'6.4'
p617
F0.027777777777777776
sS'3.5'
p618
F0.11764705882352941
sS'6.3'
p619
F0.12
sS'6.2'
p620
F0
ssS'058-13714734'
p621
(dp622
S'6.7'
p623
F0
sS'6.6'
p624
F0
sS'6.5'
p625
F0
sS'6.4'
p626
F0
sS'6.3'
p627
F0
sS'6.2'
p628
F0.15384615384615385
sS'6.1'
p629
F0
sS'6.9'
p630
F0
sS'6.8'
p631
F0
sS'1.10'
p632
F0
sS'1.11'
p633
F0.073170731707317069
sS'2.11'
p634
F0.066666666666666666
sS'2.10'
p635
F0.10526315789473684
sS'3.10'
p636
F0
sS'3.11'
p637
F0
sS'3.12'
p638
F0
sS'3.13'
p639
F0
sS'3.14'
p640
F0.076923076923076927
sS'3.15'
p641
F0.29999999999999999
sS'3.16'
p642
F0
sS'3.6'
p643
F0
sS'3.7'
p644
F0
sS'2.9'
p645
F0
sS'2.8'
p646
F0
sS'3.2'
p647
F0
sS'3.3'
p648
F0
sS'3.1'
p649
F0
sS'2.3'
p650
F0
sS'2.2'
p651
F0.055555555555555552
sS'2.1'
p652
F0
sS'2.7'
p653
F0
sS'2.6'
p654
F0
sS'2.5'
p655
F0
sS'2.4'
p656
F0
sS'5.25'
p657
F0
sS'5.24'
p658
F0
sS'5.23'
p659
F0
sS'5.22'
p660
F0
sS'5.21'
p661
F0
sS'5.20'
p662
F0
sS'6.19'
p663
F0.125
sS'6.18'
p664
F0.125
sS'6.13'
p665
F0.5
sS'6.12'
p666
F0.14285714285714285
sS'6.11'
p667
F0.14285714285714285
sS'6.10'
p668
F0
sS'6.17'
p669
F0.25
sS'6.16'
p670
F0.20000000000000001
sS'6.15'
p671
F0.33333333333333331
sS'6.14'
p672
F0.33333333333333331
sS'5.12'
p673
F0
sS'5.13'
p674
F0.22222222222222221
sS'5.10'
p675
F0.066666666666666666
sS'5.11'
p676
F0.038461538461538464
sS'5.16'
p677
F0.055555555555555552
sS'5.17'
p678
F0.064516129032258063
sS'5.14'
p679
F0.13333333333333333
sS'5.15'
p680
F0.090909090909090912
sS'5.18'
p681
F0.066666666666666666
sS'5.19'
p682
F0
sS'3.4'
p683
F0
sS'3.5'
p684
F0
sS'1.4'
p685
F0
sS'1.5'
p686
F0
sS'1.6'
p687
F0
sS'1.7'
p688
F0
sS'1.1'
p689
F0
sS'1.2'
p690
F0.13043478260869565
sS'1.3'
p691
F0
sS'1.8'
p692
F0
sS'1.9'
p693
F0
sS'4.5'
p694
F0
sS'4.4'
p695
F0
sS'5.2'
p696
F0
sS'4.6'
p697
F0
sS'4.1'
p698
F0
sS'5.5'
p699
F0
sS'5.6'
p700
F0
sS'5.7'
p701
F0
sS'5.8'
p702
F0
sS'5.9'
p703
F0
sS'3.8'
p704
F0
sS'3.9'
p705
F0
sS'5.1'
p706
F0
sS'4.7'
p707
F0
sS'5.3'
p708
F0
sS'5.4'
p709
F0
sS'4.3'
p710
F0.15384615384615385
sS'4.2'
p711
F0
sS'6.22'
p712
F0
sS'6.23'
p713
F0
sS'6.20'
p714
F0.047619047619047616
sS'6.21'
p715
F0.14285714285714285
ssS'060-0021651'
p716
(dp717
S'7.10'
p718
F0
sS'7.2'
p719
F0
sS'7.3'
p720
F0
sS'7.1'
p721
F0.125
sS'7.6'
p722
F0
sS'6.2'
p723
F0.095238095238095233
sS'6.1'
p724
F0.2857142857142857
sS'7.5'
p725
F0
sS'7.8'
p726
F0
sS'7.9'
p727
F0
sS'8.11'
p728
F0.2857142857142857
sS'8.10'
p729
F0.1111111111111111
sS'8.13'
p730
F0
sS'8.12'
p731
F0
sS'6.4'
p732
F0
sS'6.3'
p733
F0
sS'7.7'
p734
F0
sS'4.11'
p735
F0.20000000000000001
sS'4.10'
p736
F0
sS'4.13'
p737
F0
sS'4.12'
p738
F0.090909090909090912
sS'4.15'
p739
F0
sS'7.4'
p740
F0
sS'4.17'
p741
F0
sS'4.16'
p742
F0
sS'4.19'
p743
F0
sS'4.18'
p744
F0
sS'3.6'
p745
F0.17647058823529413
sS'3.7'
p746
F0
sS'3.4'
p747
F0
sS'2.8'
p748
F0
sS'3.2'
p749
F0.16666666666666666
sS'3.3'
p750
F0
sS'3.1'
p751
F0.5
sS'2.3'
p752
F0.090909090909090912
sS'2.2'
p753
F0.125
sS'2.1'
p754
F0.14285714285714285
sS'2.7'
p755
F0
sS'2.6'
p756
F0
sS'2.5'
p757
F0
sS'2.4'
p758
F0
sS'4.14'
p759
F0
sS'8.1'
p760
F0.10526315789473684
sS'8.3'
p761
F0
sS'8.2'
p762
F0
sS'8.5'
p763
F0
sS'8.4'
p764
F0
sS'8.7'
p765
F0
sS'8.6'
p766
F0
sS'8.9'
p767
F0
sS'8.8'
p768
F0
sS'5.12'
p769
F0.076923076923076927
sS'5.13'
p770
F0.076923076923076927
sS'5.10'
p771
F0.11764705882352941
sS'5.11'
p772
F0.083333333333333329
sS'5.16'
p773
F0
sS'5.17'
p774
F0
sS'5.14'
p775
F0.1111111111111111
sS'5.15'
p776
F0
sS'3.5'
p777
F0
sS'1.4'
p778
F0.10526315789473684
sS'1.5'
p779
F0.18181818181818182
sS'1.6'
p780
F0
sS'1.7'
p781
F0
sS'1.1'
p782
F0.125
sS'1.2'
p783
F0
sS'1.3'
p784
F0.17647058823529413
sS'1.8'
p785
F0
sS'4.5'
p786
F0
sS'4.4'
p787
F0
sS'5.2'
p788
F0
sS'4.6'
p789
F0
sS'4.1'
p790
F0
sS'5.5'
p791
F0
sS'4.3'
p792
F0
sS'4.2'
p793
F0
sS'5.8'
p794
F0
sS'5.9'
p795
F0
sS'4.9'
p796
F0
sS'4.8'
p797
F0
sS'5.1'
p798
F0.055555555555555552
sS'4.7'
p799
F0
sS'5.3'
p800
F0
sS'4.20'
p801
F0
sS'5.4'
p802
F0
sS'5.6'
p803
F0
sS'5.7'
p804
F0
ssS'079-14194071'
p805
(dp806
S'1.4'
p807
F0
sS'1.5'
p808
F0
sS'1.6'
p809
F0
sS'1.7'
p810
F0
sS'1.1'
p811
F0
sS'1.2'
p812
F0.20000000000000001
sS'1.3'
p813
F0.14285714285714285
sS'3.10'
p814
F3
sS'3.11'
p815
F0
sS'3.12'
p816
F0
sS'3.13'
p817
F0
sS'1.8'
p818
F0
sS'3.15'
p819
F0
sS'3.16'
p820
F0
sS'3.17'
p821
F0
sS'3.6'
p822
F0
sS'3.7'
p823
F0
sS'2.9'
p824
F0
sS'2.8'
p825
F0
sS'3.2'
p826
F0
sS'3.3'
p827
F0
sS'3.1'
p828
F0
sS'2.3'
p829
F0
sS'2.2'
p830
F0
sS'2.1'
p831
F2
sS'2.7'
p832
F0
sS'2.6'
p833
F0
sS'2.5'
p834
F0
sS'2.4'
p835
F0
sS'4.5'
p836
F0
sS'4.4'
p837
F0
sS'5.2'
p838
F0.0625
sS'5.3'
p839
F0.13636363636363635
sS'4.1'
p840
F0
sS'5.5'
p841
F0
sS'4.3'
p842
F0.068965517241379309
sS'4.2'
p843
F0.10344827586206896
sS'3.19'
p844
F0
sS'5.9'
p845
F0
sS'3.21'
p846
F0
sS'3.20'
p847
F0
sS'3.22'
p848
F0
sS'3.8'
p849
F0
sS'2.19'
p850
F0
sS'2.18'
p851
F0
sS'2.17'
p852
F0
sS'2.16'
p853
F0
sS'2.15'
p854
F0
sS'2.14'
p855
F0
sS'2.13'
p856
F0
sS'2.12'
p857
F0
sS'2.11'
p858
F0
sS'2.10'
p859
F0
sS'5.1'
p860
F0
sS'3.14'
p861
F0
sS'5.12'
p862
F0.055555555555555552
sS'5.13'
p863
F0.068965517241379309
sS'5.10'
p864
F0.22222222222222221
sS'5.11'
p865
F0.17647058823529413
sS'5.4'
p866
F0
sS'3.9'
p867
F0
sS'3.18'
p868
F0
sS'5.6'
p869
F0
sS'5.7'
p870
F0
sS'3.4'
p871
F0
sS'5.8'
p872
F0
sS'3.5'
p873
F0
sS'2.20'
p874
F0
ssS'068-16207900'
p875
(dp876
S'6.6'
p877
F0
sS'6.5'
p878
F0
sS'6.4'
p879
F0
sS'6.3'
p880
F1
sS'6.2'
p881
F0
sS'6.1'
p882
F0
sS'4.33'
p883
F0
sS'4.32'
p884
F0
sS'4.31'
p885
F0
sS'4.30'
p886
F0
sS'4.35'
p887
F0
sS'4.34'
p888
F0
sS'1.14'
p889
F0.33333333333333331
sS'1.15'
p890
F0
sS'1.12'
p891
F0.23076923076923078
sS'1.13'
p892
F0.1875
sS'1.10'
p893
F0.25
sS'1.11'
p894
F0.20000000000000001
sS'2.19'
p895
F0.25
sS'2.18'
p896
F0.16666666666666666
sS'2.17'
p897
F0.071428571428571425
sS'2.16'
p898
F0.0625
sS'2.15'
p899
F0.076923076923076927
sS'2.14'
p900
F0.27272727272727271
sS'2.13'
p901
F0
sS'2.12'
p902
F0
sS'2.11'
p903
F0
sS'2.10'
p904
F0
sS'2.22'
p905
F0
sS'2.23'
p906
F0
sS'2.20'
p907
F0.15384615384615385
sS'2.21'
p908
F0.66666666666666663
sS'4.11'
p909
F0.15384615384615385
sS'4.10'
p910
F0.40000000000000002
sS'4.13'
p911
F0.15384615384615385
sS'4.12'
p912
F0.15384615384615385
sS'4.15'
p913
F0
sS'4.14'
p914
F0.5
sS'4.17'
p915
F0
sS'4.16'
p916
F0
sS'4.19'
p917
F0
sS'4.18'
p918
F0
sS'3.6'
p919
F0.16666666666666666
sS'3.7'
p920
F0.14285714285714285
sS'2.9'
p921
F0
sS'2.8'
p922
F0
sS'3.2'
p923
F0.090909090909090912
sS'3.3'
p924
F0.10000000000000001
sS'3.1'
p925
F0.21428571428571427
sS'2.3'
p926
F0
sS'2.2'
p927
F0.29999999999999999
sS'2.1'
p928
F0
sS'2.7'
p929
F0
sS'2.6'
p930
F0
sS'2.5'
p931
F0
sS'2.4'
p932
F0
sS'5.26'
p933
F0
sS'5.25'
p934
F0.1111111111111111
sS'5.24'
p935
F0.090909090909090912
sS'5.23'
p936
F0.125
sS'5.22'
p937
F0.083333333333333329
sS'5.21'
p938
F0.10000000000000001
sS'5.20'
p939
F0
sS'5.12'
p940
F0
sS'5.13'
p941
F0
sS'5.10'
p942
F0
sS'5.11'
p943
F0
sS'5.16'
p944
F0
sS'5.17'
p945
F0
sS'5.14'
p946
F0
sS'5.15'
p947
F0
sS'5.18'
p948
F0
sS'5.19'
p949
F0.20000000000000001
sS'3.4'
p950
F0.25
sS'4.21'
p951
F0
sS'3.5'
p952
F0.18181818181818182
sS'1.4'
p953
F0
sS'1.5'
p954
F0
sS'1.6'
p955
F0
sS'1.7'
p956
F0
sS'1.1'
p957
F0
sS'1.2'
p958
F0
sS'1.3'
p959
F0
sS'1.8'
p960
F0
sS'1.9'
p961
F0
sS'4.5'
p962
F0
sS'4.4'
p963
F0
sS'5.2'
p964
F0
sS'5.3'
p965
F0
sS'4.1'
p966
F0
sS'5.5'
p967
F0.40000000000000002
sS'5.6'
p968
F0
sS'4.2'
p969
F0
sS'5.8'
p970
F0
sS'5.9'
p971
F0
sS'4.9'
p972
F0
sS'4.8'
p973
F0
sS'5.1'
p974
F0
sS'4.7'
p975
F0
sS'4.28'
p976
F0
sS'4.29'
p977
F0
sS'4.6'
p978
F0
sS'4.20'
p979
F0
sS'5.4'
p980
F0
sS'4.22'
p981
F0
sS'4.23'
p982
F0
sS'4.24'
p983
F0
sS'4.25'
p984
F0
sS'4.26'
p985
F0
sS'4.27'
p986
F0
sS'4.3'
p987
F0
sS'5.7'
p988
F0
ssS'026-4380722'
p989
(dp990
S'1.4'
p991
F0
sS'1.5'
p992
F0
sS'1.6'
p993
F0
sS'1.7'
p994
F0
sS'1.1'
p995
F0.25
sS'1.2'
p996
F0
sS'1.3'
p997
F0
sS'3.10'
p998
F0
sS'3.11'
p999
F0
sS'3.12'
p1000
F0
sS'3.13'
p1001
F0
sS'1.8'
p1002
F0
sS'1.9'
p1003
F0
sS'3.16'
p1004
F0
sS'3.17'
p1005
F0
sS'3.6'
p1006
F0
sS'3.7'
p1007
F0
sS'2.9'
p1008
F0
sS'2.8'
p1009
F0
sS'3.2'
p1010
F0
sS'3.3'
p1011
F0
sS'3.1'
p1012
F0.375
sS'2.3'
p1013
F0
sS'2.2'
p1014
F0
sS'2.1'
p1015
F0.33333333333333331
sS'2.7'
p1016
F0
sS'2.6'
p1017
F0
sS'2.5'
p1018
F0
sS'2.4'
p1019
F0
sS'1.16'
p1020
F0.33333333333333331
sS'4.4'
p1021
F0.40000000000000002
sS'1.14'
p1022
F0.15384615384615385
sS'1.15'
p1023
F0.071428571428571425
sS'1.12'
p1024
F0.16666666666666666
sS'1.13'
p1025
F0.20000000000000001
sS'1.10'
p1026
F0.14999999999999999
sS'1.11'
p1027
F0.16666666666666666
sS'3.19'
p1028
F0
sS'5.9'
p1029
F0
sS'3.20'
p1030
F0
sS'3.8'
p1031
F0
sS'2.18'
p1032
F0
sS'2.17'
p1033
F0
sS'2.16'
p1034
F0
sS'2.15'
p1035
F0
sS'2.14'
p1036
F0
sS'2.13'
p1037
F0
sS'2.12'
p1038
F0
sS'2.11'
p1039
F0
sS'2.10'
p1040
F0
sS'4.5'
p1041
F0.2857142857142857
sS'5.1'
p1042
F0.18181818181818182
sS'3.14'
p1043
F0
sS'5.4'
p1044
F0
sS'5.2'
p1045
F0.14285714285714285
sS'3.15'
p1046
F0
sS'5.12'
p1047
F0.1111111111111111
sS'5.10'
p1048
F0.125
sS'5.3'
p1049
F0
sS'4.1'
p1050
F0
sS'3.9'
p1051
F0
sS'3.18'
p1052
F0
sS'5.6'
p1053
F0
sS'5.5'
p1054
F0
sS'5.7'
p1055
F0
sS'3.4'
p1056
F0
sS'5.8'
p1057
F0
sS'5.11'
p1058
F0.11764705882352941
sS'3.5'
p1059
F0
sS'4.2'
p1060
F0
sS'4.3'
p1061
F0
ssS'078-3797219'
p1062
(dp1063
S'11.1'
p1064
F0
sS'7.2'
p1065
F0
sS'7.3'
p1066
F0
sS'6.5'
p1067
F0
sS'7.1'
p1068
F0
sS'6.3'
p1069
F0
sS'7.7'
p1070
F0
sS'6.1'
p1071
F0
sS'7.5'
p1072
F0
sS'7.8'
p1073
F0
sS'7.9'
p1074
F0
sS'8.10'
p1075
F0
sS'1.16'
p1076
F0
sS'1.17'
p1077
F0
sS'1.14'
p1078
F0
sS'1.15'
p1079
F0
sS'1.12'
p1080
F0.088235294117647065
sS'1.13'
p1081
F0
sS'1.10'
p1082
F0.33333333333333331
sS'1.11'
p1083
F0.1111111111111111
sS'1.18'
p1084
F0
sS'1.19'
p1085
F0
sS'11.10'
p1086
F0.052631578947368418
sS'11.11'
p1087
F0
sS'6.7'
p1088
F0.16666666666666666
sS'6.6'
p1089
F0
sS'6.4'
p1090
F0
sS'7.6'
p1091
F0
sS'6.2'
p1092
F0.083333333333333329
sS'4.11'
p1093
F0
sS'4.10'
p1094
F0
sS'4.12'
p1095
F0.25
sS'7.4'
p1096
F0
sS'3.6'
p1097
F0
sS'3.7'
p1098
F0.125
sS'3.4'
p1099
F0
sS'3.5'
p1100
F0
sS'3.2'
p1101
F0.12
sS'3.3'
p1102
F0.25
sS'3.1'
p1103
F0
sS'2.3'
p1104
F0
sS'2.2'
p1105
F0
sS'2.1'
p1106
F0
sS'3.8'
p1107
F0
sS'10.1'
p1108
F0
sS'5.4'
p1109
F0
sS'10.3'
p1110
F1.5
sS'10.2'
p1111
F0
sS'10.5'
p1112
F0.5
sS'10.4'
p1113
F0
sS'11.14'
p1114
F0
sS'11.15'
p1115
F0.23076923076923078
sS'11.12'
p1116
F0
sS'11.13'
p1117
F0
sS'9.10'
p1118
F0.5
sS'9.11'
p1119
F1
sS'8.1'
p1120
F0
sS'8.3'
p1121
F0.083333333333333329
sS'8.2'
p1122
F0.090909090909090912
sS'8.5'
p1123
F0
sS'8.4'
p1124
F0
sS'8.7'
p1125
F0.047619047619047616
sS'8.6'
p1126
F0.18181818181818182
sS'8.9'
p1127
F0.125
sS'8.8'
p1128
F0.071428571428571425
sS'9.8'
p1129
F0
sS'9.9'
p1130
F0
sS'9.4'
p1131
F0
sS'9.5'
p1132
F0
sS'9.6'
p1133
F0
sS'9.7'
p1134
F0
sS'9.1'
p1135
F0.027777777777777776
sS'9.2'
p1136
F0
sS'9.3'
p1137
F0
sS'1.4'
p1138
F0
sS'1.5'
p1139
F0
sS'1.6'
p1140
F0
sS'1.7'
p1141
F0
sS'1.1'
p1142
F0
sS'1.2'
p1143
F0
sS'1.3'
p1144
F0
sS'1.8'
p1145
F0
sS'1.9'
p1146
F0
sS'4.5'
p1147
F1
sS'4.4'
p1148
F2
sS'5.2'
p1149
F0
sS'4.6'
p1150
F0.23076923076923078
sS'4.1'
p1151
F0
sS'11.9'
p1152
F0
sS'4.3'
p1153
F0.375
sS'4.2'
p1154
F0.66666666666666663
sS'11.4'
p1155
F0.21428571428571427
sS'11.5'
p1156
F0
sS'11.6'
p1157
F0.20000000000000001
sS'11.7'
p1158
F0
sS'4.9'
p1159
F0.29999999999999999
sS'4.8'
p1160
F0.27272727272727271
sS'11.2'
p1161
F0.16666666666666666
sS'11.3'
p1162
F0.25
sS'5.1'
p1163
F0
sS'4.7'
p1164
F0.23076923076923078
sS'5.3'
p1165
F0
sS'11.8'
p1166
F0
sS'1.21'
p1167
F0
sS'1.20'
p1168
F0
ssS'078-8112187'
p1169
(dp1170
S'1.4'
p1171
F0
sS'1.5'
p1172
F0
sS'1.6'
p1173
F0
sS'1.7'
p1174
F0
sS'7.10'
p1175
F0.5
sS'1.1'
p1176
F0.21428571428571427
sS'1.2'
p1177
F0
sS'1.3'
p1178
F0
sS'7.1'
p1179
F0
sS'7.5'
p1180
F0
sS'1.8'
p1181
F0
sS'1.9'
p1182
F0
sS'6.7'
p1183
F0
sS'6.6'
p1184
F0
sS'2.9'
p1185
F0
sS'2.8'
p1186
F0
sS'3.2'
p1187
F0.2857142857142857
sS'3.3'
p1188
F0
sS'6.1'
p1189
F0
sS'3.1'
p1190
F0.5
sS'2.3'
p1191
F0
sS'2.2'
p1192
F0
sS'2.1'
p1193
F3
sS'7.9'
p1194
F0
sS'2.7'
p1195
F0
sS'2.6'
p1196
F0
sS'2.5'
p1197
F0
sS'2.4'
p1198
F0
sS'4.4'
p1199
F0
sS'5.2'
p1200
F0
sS'5.3'
p1201
F0
sS'4.1'
p1202
F0.59999999999999998
sS'5.5'
p1203
F0
sS'5.6'
p1204
F0
sS'4.2'
p1205
F0
sS'5.8'
p1206
F0
sS'5.9'
p1207
F0
sS'7.13'
p1208
F0
sS'7.8'
p1209
F0
sS'6.9'
p1210
F0
sS'7.7'
p1211
F0
sS'2.18'
p1212
F0
sS'2.17'
p1213
F0
sS'2.16'
p1214
F0
sS'2.15'
p1215
F0
sS'2.14'
p1216
F0
sS'2.13'
p1217
F0
sS'2.12'
p1218
F0
sS'2.11'
p1219
F0
sS'2.10'
p1220
F0.25
sS'6.8'
p1221
F0
sS'7.16'
p1222
F0
sS'5.1'
p1223
F0.066666666666666666
sS'7.18'
p1224
F0
sS'6.10'
p1225
F0
sS'7.4'
p1226
F0
sS'7.11'
p1227
F0.10526315789473684
sS'5.10'
p1228
F0.33333333333333331
sS'5.4'
p1229
F0
sS'7.17'
p1230
F0
sS'7.2'
p1231
F0
sS'7.14'
p1232
F0
sS'1.10'
p1233
F1.5
sS'7.3'
p1234
F0
sS'7.12'
p1235
F0
sS'5.7'
p1236
F0
sS'6.5'
p1237
F0.15384615384615385
sS'7.15'
p1238
F0
sS'6.4'
p1239
F2
sS'4.3'
p1240
F0
sS'6.3'
p1241
F0.5
sS'7.6'
p1242
F0
sS'6.2'
p1243
F0.40000000000000002
ssS'074-6324762'
p1244
(dp1245
S'1.4'
p1246
F0
sS'1.5'
p1247
F0.052631578947368418
sS'1.6'
p1248
F0
sS'1.7'
p1249
F0.18181818181818182
sS'1.1'
p1250
F0.66666666666666663
sS'1.2'
p1251
F0.066666666666666666
sS'1.3'
p1252
F0.125
sS'3.10'
p1253
F0
sS'3.11'
p1254
F0
sS'3.12'
p1255
F0
sS'3.13'
p1256
F0.25
sS'1.8'
p1257
F0
sS'1.9'
p1258
F0
sS'3.16'
p1259
F0.090909090909090912
sS'3.17'
p1260
F0
sS'3.6'
p1261
F0
sS'3.7'
p1262
F0
sS'2.9'
p1263
F0
sS'2.8'
p1264
F0
sS'3.2'
p1265
F0
sS'3.3'
p1266
F0
sS'3.1'
p1267
F0
sS'2.3'
p1268
F0.055555555555555552
sS'2.2'
p1269
F0.15789473684210525
sS'2.1'
p1270
F0
sS'2.7'
p1271
F0
sS'2.6'
p1272
F0
sS'2.5'
p1273
F0.060606060606060608
sS'2.4'
p1274
F0.090909090909090912
sS'4.5'
p1275
F0.090909090909090912
sS'4.4'
p1276
F0.125
sS'4.7'
p1277
F0
sS'4.6'
p1278
F0
sS'1.12'
p1279
F0.125
sS'1.13'
p1280
F0.16666666666666666
sS'1.10'
p1281
F0.083333333333333329
sS'1.11'
p1282
F0.071428571428571425
sS'3.19'
p1283
F0
sS'4.9'
p1284
F0
sS'4.8'
p1285
F0
sS'3.8'
p1286
F0
sS'4.11'
p1287
F0
sS'3.9'
p1288
F0
sS'2.10'
p1289
F2
sS'5.1'
p1290
F0.027777777777777776
sS'3.14'
p1291
F0
sS'5.4'
p1292
F0
sS'5.2'
p1293
F0
sS'3.15'
p1294
F0.25
sS'4.14'
p1295
F0.1111111111111111
sS'5.3'
p1296
F0
sS'4.12'
p1297
F0.055555555555555552
sS'4.10'
p1298
F0
sS'4.1'
p1299
F0
sS'3.18'
p1300
F0
sS'5.6'
p1301
F0
sS'5.5'
p1302
F0
sS'5.7'
p1303
F0
sS'3.4'
p1304
F0
sS'5.8'
p1305
F0
sS'3.5'
p1306
F0
sS'4.2'
p1307
F0.076923076923076927
sS'4.13'
p1308
F0.0625
sS'4.3'
p1309
F0.066666666666666666
ssS'075-15948761'
p1310
(dp1311
S'6.7'
p1312
F0
sS'6.6'
p1313
F0
sS'6.5'
p1314
F0
sS'7.1'
p1315
F0.0625
sS'6.3'
p1316
F0
sS'6.2'
p1317
F0
sS'6.1'
p1318
F0
sS'6.9'
p1319
F0
sS'6.8'
p1320
F0
sS'2.11'
p1321
F0.13333333333333333
sS'2.10'
p1322
F0.5
sS'7.2'
p1323
F0
sS'7.3'
p1324
F0
sS'6.4'
p1325
F0
sS'4.11'
p1326
F0.33333333333333331
sS'4.10'
p1327
F0
sS'4.13'
p1328
F0
sS'4.12'
p1329
F0.20000000000000001
sS'4.15'
p1330
F0.083333333333333329
sS'4.14'
p1331
F0.068965517241379309
sS'4.16'
p1332
F0
sS'2.9'
p1333
F0
sS'2.8'
p1334
F0
sS'3.2'
p1335
F0.086956521739130432
sS'3.1'
p1336
F0.10000000000000001
sS'2.3'
p1337
F0.75
sS'2.2'
p1338
F0.25
sS'2.1'
p1339
F0
sS'2.7'
p1340
F0
sS'2.6'
p1341
F0
sS'2.5'
p1342
F0
sS'2.4'
p1343
F0.083333333333333329
sS'9.22'
p1344
F0
sS'9.21'
p1345
F0
sS'9.20'
p1346
F0
sS'9.18'
p1347
F0
sS'9.19'
p1348
F0
sS'9.16'
p1349
F0
sS'9.17'
p1350
F0
sS'9.14'
p1351
F0
sS'9.15'
p1352
F0
sS'9.12'
p1353
F0.023809523809523808
sS'9.13'
p1354
F0.14285714285714285
sS'9.10'
p1355
F0.22222222222222221
sS'9.11'
p1356
F0.056603773584905662
sS'8.1'
p1357
F0
sS'8.3'
p1358
F0.10526315789473684
sS'8.2'
p1359
F0.086956521739130432
sS'8.5'
p1360
F0
sS'8.4'
p1361
F0.052631578947368418
sS'8.7'
p1362
F0
sS'8.6'
p1363
F0
sS'8.8'
p1364
F0
sS'9.8'
p1365
F0
sS'9.9'
p1366
F0
sS'9.4'
p1367
F0
sS'9.5'
p1368
F0
sS'9.6'
p1369
F0
sS'9.7'
p1370
F0
sS'9.1'
p1371
F0.23076923076923078
sS'9.2'
p1372
F0
sS'9.3'
p1373
F0
sS'6.19'
p1374
F0
sS'6.18'
p1375
F0
sS'6.13'
p1376
F0.043478260869565216
sS'6.12'
p1377
F0.25
sS'6.11'
p1378
F0
sS'6.10'
p1379
F0
sS'6.17'
p1380
F0
sS'6.16'
p1381
F0
sS'6.15'
p1382
F2
sS'6.14'
p1383
F0
sS'5.12'
p1384
F0.5
sS'5.13'
p1385
F0.033333333333333333
sS'5.10'
p1386
F0.076923076923076927
sS'5.11'
p1387
F0.064516129032258063
sS'5.14'
p1388
F0
sS'1.4'
p1389
F0
sS'1.5'
p1390
F0.33333333333333331
sS'1.1'
p1391
F0
sS'1.2'
p1392
F2
sS'1.3'
p1393
F0.050000000000000003
sS'4.5'
p1394
F0
sS'4.4'
p1395
F0
sS'4.7'
p1396
F0
sS'4.6'
p1397
F0
sS'4.1'
p1398
F0
sS'5.5'
p1399
F0
sS'4.3'
p1400
F0
sS'4.2'
p1401
F0
sS'5.8'
p1402
F0
sS'5.9'
p1403
F0
sS'4.9'
p1404
F0
sS'4.8'
p1405
F0
sS'7.4'
p1406
F0
sS'5.1'
p1407
F0.22222222222222221
sS'5.2'
p1408
F0
sS'5.3'
p1409
F0
sS'5.4'
p1410
F0
sS'5.6'
p1411
F0
sS'5.7'
p1412
F0
ssS'079-4736087'
p1413
(dp1414
S'1.4'
p1415
F0
sS'1.5'
p1416
F0
sS'4.13'
p1417
F0
sS'4.12'
p1418
F0
sS'4.15'
p1419
F0.090909090909090912
sS'1.1'
p1420
F0
sS'1.2'
p1421
F0.125
sS'1.3'
p1422
F0.125
sS'3.10'
p1423
F0.14285714285714285
sS'3.11'
p1424
F0
sS'3.12'
p1425
F0
sS'3.6'
p1426
F0
sS'3.7'
p1427
F0
sS'3.4'
p1428
F0
sS'3.5'
p1429
F0
sS'3.2'
p1430
F0
sS'3.3'
p1431
F0
sS'6.1'
p1432
F0
sS'3.1'
p1433
F0
sS'2.3'
p1434
F0.055555555555555552
sS'2.2'
p1435
F0.064516129032258063
sS'2.1'
p1436
F0
sS'2.7'
p1437
F0
sS'2.6'
p1438
F0
sS'2.5'
p1439
F0
sS'2.4'
p1440
F0
sS'4.5'
p1441
F0
sS'4.4'
p1442
F0
sS'4.7'
p1443
F0
sS'4.6'
p1444
F0
sS'4.1'
p1445
F0
sS'5.5'
p1446
F0
sS'4.3'
p1447
F0
sS'4.2'
p1448
F0
sS'5.8'
p1449
F0
sS'5.9'
p1450
F0
sS'4.16'
p1451
F0.043478260869565216
sS'4.9'
p1452
F0
sS'4.8'
p1453
F0
sS'3.8'
p1454
F0
sS'4.11'
p1455
F0
sS'3.9'
p1456
F0
sS'2.10'
p1457
F0.11538461538461539
sS'5.1'
p1458
F0
sS'5.2'
p1459
F0
sS'4.14'
p1460
F0.068181818181818177
sS'5.13'
p1461
F0.125
sS'5.10'
p1462
F0
sS'5.11'
p1463
F0
sS'4.10'
p1464
F0
sS'5.4'
p1465
F0
sS'5.3'
p1466
F0
sS'5.12'
p1467
F0.375
sS'5.6'
p1468
F0
sS'5.7'
p1469
F0
sS'2.9'
p1470
F0
sS'2.8'
p1471
F0
sS'6.3'
p1472
F0.037735849056603772
sS'6.2'
p1473
F0.071428571428571425
ssS'107-16164699'
p1474
(dp1475
S'1.4'
p1476
F0
sS'1.5'
p1477
F0.16666666666666666
sS'1.6'
p1478
F0
sS'1.7'
p1479
F0
sS'1.1'
p1480
F0
sS'1.2'
p1481
F0.10714285714285714
sS'1.3'
p1482
F0.13043478260869565
sS'3.10'
p1483
F0
sS'3.11'
p1484
F0
sS'3.12'
p1485
F0
sS'3.13'
p1486
F0
sS'1.8'
p1487
F0
sS'1.9'
p1488
F0
sS'3.16'
p1489
F0.375
sS'3.17'
p1490
F0
sS'3.6'
p1491
F0
sS'3.7'
p1492
F0
sS'3.4'
p1493
F0.16666666666666666
sS'2.8'
p1494
F0
sS'3.2'
p1495
F0
sS'3.3'
p1496
F0.22222222222222221
sS'6.1'
p1497
F0.5
sS'3.1'
p1498
F0
sS'2.3'
p1499
F1
sS'2.2'
p1500
F0.15384615384615385
sS'2.1'
p1501
F0
sS'2.7'
p1502
F0
sS'2.6'
p1503
F0
sS'2.5'
p1504
F0.2857142857142857
sS'2.4'
p1505
F0.40000000000000002
sS'4.5'
p1506
F0.33333333333333331
sS'4.4'
p1507
F0.25
sS'4.7'
p1508
F0
sS'4.6'
p1509
F0
sS'4.1'
p1510
F0
sS'5.5'
p1511
F0.058823529411764705
sS'1.10'
p1512
F0.25
sS'4.2'
p1513
F0
sS'5.8'
p1514
F0
sS'5.9'
p1515
F0
sS'4.9'
p1516
F0
sS'4.8'
p1517
F0
sS'3.8'
p1518
F0
sS'4.11'
p1519
F0
sS'3.9'
p1520
F0
sS'5.1'
p1521
F0
sS'3.14'
p1522
F0.2857142857142857
sS'5.2'
p1523
F0.14999999999999999
sS'3.15'
p1524
F0.16666666666666666
sS'6.4'
p1525
F0
sS'5.10'
p1526
F0
sS'5.3'
p1527
F0
sS'4.12'
p1528
F0
sS'4.10'
p1529
F0
sS'5.4'
p1530
F0.125
sS'3.18'
p1531
F0.20000000000000001
sS'6.7'
p1532
F0
sS'5.6'
p1533
F0
sS'6.6'
p1534
F0
sS'5.7'
p1535
F0
sS'6.5'
p1536
F0
sS'7.1'
p1537
F2
sS'3.5'
p1538
F0
sS'4.3'
p1539
F0.050000000000000003
sS'6.3'
p1540
F0.125
sS'6.2'
p1541
F0.5
ssS'070-4154814'
p1542
(dp1543
S'6.7'
p1544
F0
sS'6.6'
p1545
F0
sS'6.5'
p1546
F0
sS'6.4'
p1547
F0
sS'6.3'
p1548
F0
sS'6.2'
p1549
F0
sS'6.1'
p1550
F0
sS'6.9'
p1551
F0
sS'6.8'
p1552
F0
sS'2.17'
p1553
F0
sS'2.16'
p1554
F0
sS'2.15'
p1555
F0
sS'2.14'
p1556
F0
sS'2.13'
p1557
F0
sS'2.12'
p1558
F0.090909090909090912
sS'2.11'
p1559
F0.052631578947368418
sS'2.10'
p1560
F0.095238095238095233
sS'3.10'
p1561
F0
sS'3.11'
p1562
F0
sS'3.12'
p1563
F0.33333333333333331
sS'3.13'
p1564
F0.095238095238095233
sS'3.14'
p1565
F0.25
sS'3.15'
p1566
F0
sS'3.16'
p1567
F0
sS'3.17'
p1568
F0
sS'3.6'
p1569
F0
sS'3.7'
p1570
F0
sS'2.9'
p1571
F0
sS'2.8'
p1572
F0
sS'3.2'
p1573
F1
sS'3.3'
p1574
F1
sS'3.1'
p1575
F0
sS'2.3'
p1576
F0
sS'2.2'
p1577
F0
sS'2.1'
p1578
F0.29999999999999999
sS'2.7'
p1579
F0
sS'2.6'
p1580
F0
sS'2.5'
p1581
F0
sS'2.4'
p1582
F0
sS'6.19'
p1583
F0
sS'6.18'
p1584
F0
sS'6.13'
p1585
F0.14285714285714285
sS'6.12'
p1586
F0.20000000000000001
sS'6.11'
p1587
F0
sS'6.10'
p1588
F0
sS'6.17'
p1589
F0.1111111111111111
sS'6.16'
p1590
F0
sS'6.15'
p1591
F0.13333333333333333
sS'6.14'
p1592
F0.20000000000000001
sS'5.12'
p1593
F0
sS'5.13'
p1594
F0
sS'5.10'
p1595
F0.33333333333333331
sS'5.11'
p1596
F0.066666666666666666
sS'5.16'
p1597
F0
sS'5.17'
p1598
F0
sS'5.14'
p1599
F0
sS'5.15'
p1600
F0
sS'3.4'
p1601
F0.086956521739130432
sS'3.5'
p1602
F0
sS'1.1'
p1603
F0.069767441860465115
sS'1.2'
p1604
F0.29999999999999999
sS'1.3'
p1605
F0.25
sS'4.5'
p1606
F0.088235294117647065
sS'4.4'
p1607
F0.10000000000000001
sS'4.7'
p1608
F0
sS'4.6'
p1609
F0.20000000000000001
sS'4.1'
p1610
F0.076923076923076927
sS'5.5'
p1611
F0
sS'4.3'
p1612
F0.20000000000000001
sS'4.2'
p1613
F0.071428571428571425
sS'5.8'
p1614
F0
sS'5.9'
p1615
F0
sS'3.8'
p1616
F0
sS'3.9'
p1617
F0
sS'5.1'
p1618
F0.052631578947368418
sS'5.2'
p1619
F0
sS'5.3'
p1620
F0
sS'5.4'
p1621
F0
sS'5.6'
p1622
F0
sS'5.7'
p1623
F0
sS'6.26'
p1624
F0
sS'6.24'
p1625
F0
sS'6.25'
p1626
F0
sS'6.22'
p1627
F0
sS'6.23'
p1628
F0
sS'6.20'
p1629
F0
sS'6.21'
p1630
F0
ssS'061-10140940'
p1631
(dp1632
S'6.7'
p1633
F0
sS'6.6'
p1634
F0
sS'6.5'
p1635
F0
sS'6.4'
p1636
F0
sS'6.3'
p1637
F0
sS'6.2'
p1638
F0
sS'6.1'
p1639
F0.23076923076923078
sS'6.9'
p1640
F0
sS'6.8'
p1641
F0
sS'1.12'
p1642
F0.076923076923076927
sS'1.10'
p1643
F0.066666666666666666
sS'1.11'
p1644
F0.33333333333333331
sS'2.17'
p1645
F0
sS'2.16'
p1646
F0
sS'2.15'
p1647
F0
sS'2.14'
p1648
F0
sS'2.13'
p1649
F0
sS'2.12'
p1650
F0.21428571428571427
sS'2.11'
p1651
F0.15384615384615385
sS'2.10'
p1652
F0
sS'4.11'
p1653
F1
sS'4.10'
p1654
F0.25
sS'4.13'
p1655
F0.17647058823529413
sS'4.12'
p1656
F0.66666666666666663
sS'4.15'
p1657
F0.058823529411764705
sS'4.14'
p1658
F0.076923076923076927
sS'4.17'
p1659
F0
sS'4.16'
p1660
F0
sS'4.19'
p1661
F0
sS'4.18'
p1662
F0
sS'3.6'
p1663
F0
sS'3.7'
p1664
F0
sS'2.9'
p1665
F0
sS'2.8'
p1666
F0
sS'3.2'
p1667
F0
sS'3.3'
p1668
F1
sS'3.1'
p1669
F0
sS'2.3'
p1670
F0
sS'2.2'
p1671
F0
sS'2.1'
p1672
F0.22222222222222221
sS'2.7'
p1673
F0
sS'2.6'
p1674
F0
sS'2.5'
p1675
F0
sS'2.4'
p1676
F0
sS'4.21'
p1677
F0
sS'6.19'
p1678
F0
sS'6.18'
p1679
F0
sS'6.13'
p1680
F0.071428571428571425
sS'6.12'
p1681
F0.055555555555555552
sS'6.11'
p1682
F0.071428571428571425
sS'6.10'
p1683
F0
sS'6.17'
p1684
F0
sS'6.16'
p1685
F0
sS'6.15'
p1686
F0
sS'6.14'
p1687
F0
sS'5.12'
p1688
F0
sS'5.13'
p1689
F0
sS'5.10'
p1690
F0.17647058823529413
sS'5.11'
p1691
F0.15384615384615385
sS'5.14'
p1692
F0
sS'3.4'
p1693
F0.25
sS'3.5'
p1694
F0
sS'1.4'
p1695
F0.066666666666666666
sS'1.5'
p1696
F0
sS'1.6'
p1697
F0
sS'1.7'
p1698
F0.25
sS'1.1'
p1699
F0.20000000000000001
sS'1.2'
p1700
F0.066666666666666666
sS'1.3'
p1701
F0.33333333333333331
sS'1.8'
p1702
F0.66666666666666663
sS'1.9'
p1703
F0
sS'4.5'
p1704
F0
sS'4.4'
p1705
F0
sS'5.2'
p1706
F0
sS'4.6'
p1707
F0
sS'5.4'
p1708
F0
sS'5.5'
p1709
F0
sS'5.6'
p1710
F0
sS'5.7'
p1711
F0
sS'5.8'
p1712
F0
sS'5.9'
p1713
F0
sS'4.9'
p1714
F0
sS'4.8'
p1715
F0
sS'3.8'
p1716
F0
sS'5.1'
p1717
F0.23076923076923078
sS'4.7'
p1718
F0
sS'5.3'
p1719
F0
sS'4.20'
p1720
F0
sS'4.1'
p1721
F0.59999999999999998
sS'4.22'
p1722
F0
sS'4.23'
p1723
F0
sS'4.24'
p1724
F0
sS'4.25'
p1725
F0
sS'4.26'
p1726
F0
sS'4.27'
p1727
F0
sS'4.3'
p1728
F0
sS'4.2'
p1729
F0
sS'6.20'
p1730
F0
sS'6.21'
p1731
F0
ssS'074-14150913'
p1732
(dp1733
S'7.10'
p1734
F0.16666666666666666
sS'1.1'
p1735
F0.14285714285714285
sS'1.2'
p1736
F0.12
sS'1.3'
p1737
F0.15384615384615385
sS'3.10'
p1738
F0
sS'7.5'
p1739
F0
sS'3.6'
p1740
F0
sS'6.6'
p1741
F0
sS'2.9'
p1742
F0
sS'2.8'
p1743
F0
sS'3.2'
p1744
F0
sS'6.2'
p1745
F2
sS'6.1'
p1746
F0
sS'3.1'
p1747
F0
sS'2.3'
p1748
F0
sS'2.2'
p1749
F0
sS'7.8'
p1750
F0
sS'7.9'
p1751
F0
sS'2.7'
p1752
F0
sS'2.6'
p1753
F0
sS'2.5'
p1754
F0
sS'2.4'
p1755
F0
sS'8.1'
p1756
F0
sS'5.1'
p1757
F0
sS'5.2'
p1758
F0.10526315789473684
sS'5.3'
p1759
F0
sS'4.1'
p1760
F0.096774193548387094
sS'5.5'
p1761
F0
sS'5.6'
p1762
F0
sS'5.7'
p1763
F0
sS'5.8'
p1764
F0
sS'5.9'
p1765
F0
sS'6.5'
p1766
F3
sS'6.9'
p1767
F0
sS'2.1'
p1768
F0.59999999999999998
sS'2.17'
p1769
F0
sS'2.16'
p1770
F0
sS'2.15'
p1771
F0
sS'2.14'
p1772
F0
sS'2.13'
p1773
F0
sS'2.12'
p1774
F0
sS'3.8'
p1775
F0
sS'2.10'
p1776
F0
sS'6.8'
p1777
F0
sS'6.10'
p1778
F0.21428571428571427
sS'7.4'
p1779
F0
sS'6.4'
p1780
F0.083333333333333329
sS'5.4'
p1781
F0
sS'3.9'
p1782
F0
sS'7.3'
p1783
F0
sS'7.2'
p1784
F0
sS'3.7'
p1785
F0
sS'3.4'
p1786
F0
sS'7.1'
p1787
F0
sS'3.5'
p1788
F0
sS'2.11'
p1789
F0.083333333333333329
sS'6.7'
p1790
F0
sS'6.3'
p1791
F0.14285714285714285
sS'7.7'
p1792
F0
sS'7.6'
p1793
F0
sS'3.3'
p1794
F0.21428571428571427
ssS'060-4302525'
p1795
(dp1796
S'1.4'
p1797
F0.25
sS'1.5'
p1798
F0.125
sS'1.6'
p1799
F0.050000000000000003
sS'1.7'
p1800
F0
sS'1.1'
p1801
F0.14285714285714285
sS'1.2'
p1802
F0.07407407407407407
sS'1.3'
p1803
F0.16666666666666666
sS'3.10'
p1804
F0
sS'3.11'
p1805
F0
sS'3.12'
p1806
F0.043478260869565216
sS'3.13'
p1807
F0
sS'1.8'
p1808
F0
sS'1.9'
p1809
F0
sS'3.6'
p1810
F0
sS'3.7'
p1811
F0
sS'3.4'
p1812
F0
sS'3.5'
p1813
F0
sS'3.2'
p1814
F0
sS'3.3'
p1815
F0
sS'6.1'
p1816
F0
sS'3.1'
p1817
F0.33333333333333331
sS'2.3'
p1818
F0
sS'2.2'
p1819
F0.125
sS'2.1'
p1820
F0.125
sS'2.7'
p1821
F0
sS'2.6'
p1822
F0.16666666666666666
sS'2.5'
p1823
F0.13333333333333333
sS'2.4'
p1824
F0
sS'4.5'
p1825
F0
sS'4.4'
p1826
F0
sS'5.2'
p1827
F0
sS'4.6'
p1828
F0
sS'1.12'
p1829
F0.090909090909090912
sS'5.5'
p1830
F0
sS'1.10'
p1831
F0.045454545454545456
sS'1.11'
p1832
F0.125
sS'5.8'
p1833
F0
sS'5.9'
p1834
F0
sS'8.5'
p1835
F0
sS'4.9'
p1836
F0
sS'4.8'
p1837
F0
sS'5.6'
p1838
F0
sS'3.8'
p1839
F0
sS'5.7'
p1840
F0
sS'6.4'
p1841
F0.043478260869565216
sS'7.4'
p1842
F0
sS'3.9'
p1843
F0
sS'8.1'
p1844
F0.15384615384615385
sS'8.9'
p1845
F0
sS'5.1'
p1846
F0.076923076923076927
sS'5.4'
p1847
F0
sS'4.7'
p1848
F0
sS'4.3'
p1849
F0
sS'5.12'
p1850
F0
sS'5.13'
p1851
F0
sS'5.10'
p1852
F0.071428571428571425
sS'5.11'
p1853
F0
sS'5.16'
p1854
F0
sS'5.14'
p1855
F0
sS'5.15'
p1856
F0
sS'4.1'
p1857
F0.20000000000000001
sS'5.3'
p1858
F0
sS'8.4'
p1859
F0
sS'7.2'
p1860
F0.16666666666666666
sS'8.7'
p1861
F0
sS'8.6'
p1862
F0
sS'7.3'
p1863
F0
sS'8.3'
p1864
F0
sS'6.5'
p1865
F0
sS'8.2'
p1866
F0.090909090909090912
sS'7.1'
p1867
F0.18181818181818182
sS'4.2'
p1868
F0.071428571428571425
sS'8.8'
p1869
F0
sS'6.3'
p1870
F0.22222222222222221
sS'6.2'
p1871
F0
ssS'078-15693133'
p1872
(dp1873
S'1.4'
p1874
F0.375
sS'1.5'
p1875
F0
sS'1.6'
p1876
F0
sS'4.12'
p1877
F0.29999999999999999
sS'4.15'
p1878
F0
sS'1.1'
p1879
F0.125
sS'1.2'
p1880
F0.1111111111111111
sS'1.3'
p1881
F0.33333333333333331
sS'3.10'
p1882
F0.5
sS'3.11'
p1883
F0
sS'3.12'
p1884
F0
sS'3.13'
p1885
F0
sS'4.13'
p1886
F0
sS'3.6'
p1887
F0
sS'3.7'
p1888
F0
sS'2.9'
p1889
F0
sS'2.8'
p1890
F0
sS'3.2'
p1891
F0
sS'3.3'
p1892
F0
sS'3.1'
p1893
F0
sS'2.3'
p1894
F0
sS'2.2'
p1895
F0.2857142857142857
sS'2.1'
p1896
F0
sS'2.7'
p1897
F0
sS'2.6'
p1898
F0
sS'2.5'
p1899
F0
sS'2.4'
p1900
F0
sS'4.5'
p1901
F0
sS'4.4'
p1902
F0
sS'4.7'
p1903
F0
sS'4.6'
p1904
F0
sS'4.1'
p1905
F0
sS'5.5'
p1906
F0
sS'4.3'
p1907
F0.050000000000000003
sS'4.2'
p1908
F0.058823529411764705
sS'5.8'
p1909
F0
sS'5.9'
p1910
F0
sS'4.16'
p1911
F0
sS'4.9'
p1912
F0
sS'4.8'
p1913
F0
sS'5.20'
p1914
F0
sS'3.8'
p1915
F0
sS'2.19'
p1916
F0.20000000000000001
sS'2.18'
p1917
F0.083333333333333329
sS'2.17'
p1918
F0
sS'2.16'
p1919
F0
sS'2.15'
p1920
F0
sS'2.14'
p1921
F0.18181818181818182
sS'2.13'
p1922
F0.27272727272727271
sS'2.12'
p1923
F0.13636363636363635
sS'2.11'
p1924
F0
sS'2.10'
p1925
F0
sS'5.1'
p1926
F0.086956521739130432
sS'5.2'
p1927
F0
sS'4.14'
p1928
F1
sS'5.13'
p1929
F0
sS'5.10'
p1930
F0.07407407407407407
sS'5.11'
p1931
F0.22222222222222221
sS'5.16'
p1932
F0
sS'5.17'
p1933
F0
sS'5.14'
p1934
F0
sS'5.15'
p1935
F0
sS'4.10'
p1936
F0
sS'5.4'
p1937
F0
sS'5.18'
p1938
F0
sS'5.19'
p1939
F0
sS'3.9'
p1940
F0
sS'5.3'
p1941
F0
sS'5.12'
p1942
F0
sS'5.6'
p1943
F0
sS'5.7'
p1944
F0
sS'3.4'
p1945
F0
sS'3.5'
p1946
F0
sS'4.11'
p1947
F2
sS'2.22'
p1948
F0
sS'2.23'
p1949
F0
sS'2.20'
p1950
F0
sS'2.21'
p1951
F0
ssS'078-6832141'
p1952
(dp1953
S'7.2'
p1954
F0
sS'7.3'
p1955
F0
sS'6.5'
p1956
F0
sS'7.1'
p1957
F0.40000000000000002
sS'6.3'
p1958
F0
sS'6.2'
p1959
F0
sS'6.1'
p1960
F0.1111111111111111
sS'8.15'
p1961
F2
sS'8.14'
p1962
F2
sS'8.17'
p1963
F2
sS'8.16'
p1964
F2
sS'8.11'
p1965
F2
sS'8.10'
p1966
F2
sS'6.9'
p1967
F0
sS'6.8'
p1968
F0
sS'6.7'
p1969
F0
sS'6.6'
p1970
F0
sS'6.4'
p1971
F0
sS'4.11'
p1972
F2
sS'4.10'
p1973
F0.42857142857142855
sS'4.13'
p1974
F2
sS'4.12'
p1975
F0.2857142857142857
sS'7.4'
p1976
F0
sS'3.10'
p1977
F2
sS'3.11'
p1978
F0.23076923076923078
sS'3.12'
p1979
F0
sS'3.13'
p1980
F0
sS'3.14'
p1981
F0
sS'3.15'
p1982
F0
sS'3.6'
p1983
F0
sS'3.7'
p1984
F0
sS'3.4'
p1985
F0
sS'3.5'
p1986
F0
sS'3.2'
p1987
F0
sS'3.3'
p1988
F0
sS'3.1'
p1989
F0.25
sS'2.3'
p1990
F0
sS'2.2'
p1991
F2
sS'2.1'
p1992
F0.20000000000000001
sS'3.8'
p1993
F0
sS'3.9'
p1994
F0
sS'8.13'
p1995
F2
sS'8.12'
p1996
F2
sS'8.1'
p1997
F0.33333333333333331
sS'8.3'
p1998
F2
sS'8.2'
p1999
F2
sS'8.5'
p2000
F2
sS'8.4'
p2001
F2
sS'8.7'
p2002
F0
sS'8.6'
p2003
F2
sS'8.9'
p2004
F0
sS'8.8'
p2005
F0
sS'6.19'
p2006
F0
sS'6.18'
p2007
F0
sS'6.13'
p2008
F0
sS'6.12'
p2009
F0
sS'6.11'
p2010
F1
sS'6.10'
p2011
F0.20000000000000001
sS'6.17'
p2012
F0
sS'6.16'
p2013
F0
sS'6.15'
p2014
F0
sS'6.14'
p2015
F0
sS'5.10'
p2016
F0.75
sS'5.11'
p2017
F2
sS'1.4'
p2018
F0
sS'1.5'
p2019
F0
sS'1.6'
p2020
F0
sS'1.1'
p2021
F0.17647058823529413
sS'1.2'
p2022
F0
sS'1.3'
p2023
F0
sS'4.5'
p2024
F0
sS'4.4'
p2025
F0
sS'5.2'
p2026
F2
sS'4.6'
p2027
F0
sS'4.1'
p2028
F0
sS'5.5'
p2029
F0
sS'4.3'
p2030
F0
sS'4.2'
p2031
F0
sS'5.8'
p2032
F0
sS'5.9'
p2033
F0
sS'4.9'
p2034
F0
sS'4.8'
p2035
F0
sS'2.5'
p2036
F0
sS'2.4'
p2037
F0
sS'5.1'
p2038
F0
sS'4.7'
p2039
F0
sS'5.3'
p2040
F0
sS'5.4'
p2041
F0
sS'5.6'
p2042
F0
sS'5.7'
p2043
F0
sS'6.20'
p2044
F0
ssS'094-2808305'
p2045
(dp2046
S'1.4'
p2047
F0.23076923076923078
sS'1.5'
p2048
F0
sS'1.6'
p2049
F0
sS'1.7'
p2050
F0
sS'4.15'
p2051
F0
sS'1.1'
p2052
F0
sS'1.2'
p2053
F0.1111111111111111
sS'1.3'
p2054
F0.16666666666666666
sS'3.10'
p2055
F0.15384615384615385
sS'3.11'
p2056
F0
sS'3.12'
p2057
F0
sS'3.13'
p2058
F0
sS'3.14'
p2059
F0
sS'3.15'
p2060
F0
sS'3.16'
p2061
F0
sS'3.6'
p2062
F0
sS'3.7'
p2063
F0
sS'3.4'
p2064
F0
sS'3.5'
p2065
F0
sS'3.2'
p2066
F0
sS'3.3'
p2067
F0
sS'3.1'
p2068
F0
sS'2.3'
p2069
F0
sS'2.2'
p2070
F0
sS'2.1'
p2071
F0
sS'4.30'
p2072
F0
sS'2.7'
p2073
F0
sS'2.6'
p2074
F0
sS'2.5'
p2075
F0.17647058823529413
sS'2.4'
p2076
F0
sS'4.5'
p2077
F0
sS'4.4'
p2078
F0
sS'4.7'
p2079
F0
sS'4.6'
p2080
F0
sS'4.1'
p2081
F0.40000000000000002
sS'4.17'
p2082
F0
sS'4.3'
p2083
F0
sS'4.2'
p2084
F0
sS'4.37'
p2085
F0
sS'4.10'
p2086
F0.024390243902439025
sS'4.16'
p2087
F0
sS'4.9'
p2088
F0
sS'4.8'
p2089
F0
sS'4.36'
p2090
F0.058823529411764705
sS'5.6'
p2091
F0
sS'4.19'
p2092
F0
sS'3.9'
p2093
F0
sS'3.8'
p2094
F0
sS'4.18'
p2095
F0
sS'4.38'
p2096
F0
sS'4.11'
p2097
F0
sS'4.34'
p2098
F0.083333333333333329
sS'5.1'
p2099
F0
sS'4.39'
p2100
F0
sS'5.2'
p2101
F0
sS'4.14'
p2102
F0
sS'4.29'
p2103
F0
sS'4.40'
p2104
F0
sS'5.3'
p2105
F0
sS'4.12'
p2106
F0
sS'4.20'
p2107
F0
sS'5.4'
p2108
F0
sS'4.22'
p2109
F0
sS'4.23'
p2110
F0
sS'4.24'
p2111
F0
sS'4.25'
p2112
F0
sS'4.26'
p2113
F0
sS'4.27'
p2114
F0
sS'4.42'
p2115
F0
sS'4.28'
p2116
F0
sS'4.32'
p2117
F0
sS'4.33'
p2118
F0
sS'4.35'
p2119
F0.16666666666666666
sS'5.5'
p2120
F0.125
sS'2.9'
p2121
F0
sS'4.21'
p2122
F0.14285714285714285
sS'2.8'
p2123
F0
sS'4.13'
p2124
F0
sS'4.31'
p2125
F0
sS'4.41'
p2126
F0
ssS'071-10334272'
p2127
(dp2128
S'1.4'
p2129
F0
sS'1.5'
p2130
F0
sS'1.6'
p2131
F0
sS'1.7'
p2132
F0
sS'4.15'
p2133
F0
sS'1.1'
p2134
F0.5
sS'1.2'
p2135
F0
sS'1.3'
p2136
F0
sS'3.10'
p2137
F0.17647058823529413
sS'3.11'
p2138
F0
sS'3.12'
p2139
F0.050000000000000003
sS'3.13'
p2140
F0
sS'1.8'
p2141
F0
sS'1.9'
p2142
F0
sS'3.16'
p2143
F0
sS'3.17'
p2144
F0
sS'3.6'
p2145
F0
sS'3.7'
p2146
F0
sS'2.9'
p2147
F0
sS'2.8'
p2148
F0
sS'3.2'
p2149
F0
sS'3.3'
p2150
F0
sS'3.1'
p2151
F0
sS'2.3'
p2152
F0
sS'2.2'
p2153
F0
sS'2.1'
p2154
F0
sS'2.7'
p2155
F0
sS'2.6'
p2156
F0
sS'2.5'
p2157
F0
sS'2.4'
p2158
F0
sS'4.5'
p2159
F0
sS'4.4'
p2160
F0
sS'4.7'
p2161
F0
sS'4.6'
p2162
F0
sS'1.12'
p2163
F0
sS'4.17'
p2164
F0
sS'1.10'
p2165
F0.13043478260869565
sS'1.11'
p2166
F0.1111111111111111
sS'5.8'
p2167
F0.071428571428571425
sS'5.9'
p2168
F0
sS'4.16'
p2169
F0
sS'4.9'
p2170
F0
sS'4.8'
p2171
F0
sS'4.19'
p2172
F0
sS'3.8'
p2173
F0
sS'4.18'
p2174
F0
sS'2.15'
p2175
F0
sS'2.14'
p2176
F0
sS'2.13'
p2177
F0
sS'2.12'
p2178
F0
sS'2.11'
p2179
F0
sS'2.10'
p2180
F0.15789473684210525
sS'5.1'
p2181
F0
sS'3.14'
p2182
F0
sS'5.4'
p2183
F0.15789473684210525
sS'5.2'
p2184
F0.15789473684210525
sS'3.15'
p2185
F0
sS'4.14'
p2186
F0
sS'5.10'
p2187
F0.13043478260869565
sS'5.3'
p2188
F0.15384615384615385
sS'4.20'
p2189
F0
sS'4.12'
p2190
F0
sS'4.10'
p2191
F0.25
sS'4.1'
p2192
F0
sS'3.9'
p2193
F0
sS'5.5'
p2194
F0.10000000000000001
sS'5.6'
p2195
F0.090909090909090912
sS'5.7'
p2196
F0.086956521739130432
sS'3.4'
p2197
F0
sS'3.5'
p2198
F0
sS'4.11'
p2199
F0.038461538461538464
sS'4.2'
p2200
F0
sS'4.13'
p2201
F0
sS'4.3'
p2202
F0
ssS'007-7484738'
p2203
(dp2204
S'1.4'
p2205
F0.090909090909090912
sS'1.5'
p2206
F0.041666666666666664
sS'1.6'
p2207
F0
sS'1.7'
p2208
F0
sS'1.1'
p2209
F0.15384615384615385
sS'1.2'
p2210
F0.11538461538461539
sS'1.3'
p2211
F0.125
sS'1.8'
p2212
F0
sS'3.6'
p2213
F0.5
sS'3.7'
p2214
F0.0625
sS'2.9'
p2215
F0
sS'2.8'
p2216
F0
sS'3.2'
p2217
F0
sS'3.3'
p2218
F0.090909090909090912
sS'3.1'
p2219
F0
sS'2.3'
p2220
F0.25
sS'2.2'
p2221
F0.047619047619047616
sS'2.1'
p2222
F0
sS'2.7'
p2223
F0
sS'2.6'
p2224
F0
sS'2.5'
p2225
F0
sS'2.4'
p2226
F0
sS'4.5'
p2227
F0
sS'4.4'
p2228
F0.071428571428571425
sS'5.2'
p2229
F0
sS'5.3'
p2230
F0
sS'4.1'
p2231
F0
sS'5.5'
p2232
F0
sS'4.3'
p2233
F0.071428571428571425
sS'4.2'
p2234
F0.058823529411764705
sS'5.8'
p2235
F0
sS'5.9'
p2236
F0
sS'3.8'
p2237
F0.33333333333333331
sS'3.9'
p2238
F0
sS'2.11'
p2239
F0.0625
sS'2.10'
p2240
F0.018867924528301886
sS'5.1'
p2241
F0
sS'5.12'
p2242
F0.1111111111111111
sS'5.13'
p2243
F0.21428571428571427
sS'5.10'
p2244
F0
sS'5.11'
p2245
F0.16666666666666666
sS'5.4'
p2246
F0
sS'5.6'
p2247
F0
sS'5.7'
p2248
F0
sS'3.4'
p2249
F0
sS'3.5'
p2250
F0
ssS'077-4500595'
p2251
(dp2252
S'1.4'
p2253
F0
sS'1.5'
p2254
F0
sS'1.6'
p2255
F0
sS'1.7'
p2256
F0
sS'1.1'
p2257
F0.16666666666666666
sS'1.2'
p2258
F0.090909090909090912
sS'1.3'
p2259
F0.1875
sS'3.10'
p2260
F0.14999999999999999
sS'3.11'
p2261
F0
sS'3.12'
p2262
F0
sS'3.13'
p2263
F0
sS'1.8'
p2264
F0
sS'1.9'
p2265
F0
sS'3.16'
p2266
F0
sS'3.17'
p2267
F0
sS'3.6'
p2268
F0
sS'3.7'
p2269
F0
sS'2.9'
p2270
F0
sS'2.8'
p2271
F0.13043478260869565
sS'3.2'
p2272
F0
sS'3.3'
p2273
F0
sS'3.1'
p2274
F0.083333333333333329
sS'2.3'
p2275
F0
sS'2.2'
p2276
F0
sS'2.1'
p2277
F0
sS'2.7'
p2278
F0.14285714285714285
sS'2.6'
p2279
F0
sS'2.5'
p2280
F0
sS'2.4'
p2281
F0
sS'4.5'
p2282
F0
sS'4.4'
p2283
F0
sS'4.7'
p2284
F0
sS'4.6'
p2285
F0
sS'1.12'
p2286
F0
sS'5.5'
p2287
F0.057142857142857141
sS'1.10'
p2288
F0.080000000000000002
sS'1.11'
p2289
F0.22222222222222221
sS'4.9'
p2290
F0
sS'4.8'
p2291
F0
sS'3.8'
p2292
F0
sS'3.9'
p2293
F0
sS'5.1'
p2294
F0
sS'3.14'
p2295
F0
sS'5.4'
p2296
F0.10526315789473684
sS'5.2'
p2297
F0
sS'3.15'
p2298
F0
sS'5.3'
p2299
F0
sS'4.1'
p2300
F0
sS'3.18'
p2301
F0
sS'5.6'
p2302
F0.10000000000000001
sS'5.7'
p2303
F0.038461538461538464
sS'3.4'
p2304
F0
sS'3.5'
p2305
F0
sS'4.2'
p2306
F0.1875
sS'4.3'
p2307
F0.090909090909090912
ssS'043-10248963'
p2308
(dp2309
S'7.14'
p2310
F0.080000000000000002
sS'7.15'
p2311
F0.090909090909090912
sS'7.16'
p2312
F0
sS'7.17'
p2313
F0
sS'7.10'
p2314
F0.15384615384615385
sS'7.11'
p2315
F0.055555555555555552
sS'7.12'
p2316
F0.15384615384615385
sS'7.13'
p2317
F0.047619047619047616
sS'7.18'
p2318
F0
sS'7.19'
p2319
F0
sS'6.7'
p2320
F0
sS'6.6'
p2321
F0
sS'6.5'
p2322
F0
sS'6.4'
p2323
F0
sS'6.3'
p2324
F0
sS'6.2'
p2325
F0
sS'6.1'
p2326
F0
sS'7.5'
p2327
F0
sS'8.15'
p2328
F0
sS'8.14'
p2329
F0
sS'7.8'
p2330
F0
sS'7.9'
p2331
F0
sS'8.11'
p2332
F0
sS'8.10'
p2333
F1
sS'6.9'
p2334
F0
sS'6.8'
p2335
F0
sS'2.14'
p2336
F0
sS'2.13'
p2337
F0
sS'2.12'
p2338
F0.2857142857142857
sS'2.11'
p2339
F0.071428571428571425
sS'2.10'
p2340
F0.1111111111111111
sS'8.17'
p2341
F0
sS'7.2'
p2342
F0
sS'7.3'
p2343
F0
sS'7.1'
p2344
F0.02
sS'7.6'
p2345
F0
sS'8.18'
p2346
F0
sS'4.11'
p2347
F0
sS'4.10'
p2348
F0
sS'7.4'
p2349
F0
sS'3.10'
p2350
F0
sS'3.11'
p2351
F0
sS'3.12'
p2352
F0
sS'3.13'
p2353
F0
sS'3.14'
p2354
F0
sS'3.15'
p2355
F0
sS'3.16'
p2356
F0
sS'3.17'
p2357
F0
sS'3.6'
p2358
F0
sS'3.7'
p2359
F0
sS'2.9'
p2360
F0
sS'2.8'
p2361
F0
sS'3.2'
p2362
F0
sS'3.3'
p2363
F0
sS'3.1'
p2364
F0.14285714285714285
sS'2.3'
p2365
F0
sS'2.2'
p2366
F0
sS'2.1'
p2367
F0.090909090909090912
sS'2.7'
p2368
F0
sS'2.6'
p2369
F0
sS'2.5'
p2370
F0
sS'2.4'
p2371
F0
sS'8.16'
p2372
F0
sS'8.13'
p2373
F0
sS'8.12'
p2374
F0
sS'7.24'
p2375
F0
sS'7.21'
p2376
F0
sS'7.20'
p2377
F0
sS'7.23'
p2378
F0
sS'7.22'
p2379
F0
sS'8.1'
p2380
F0.25
sS'8.3'
p2381
F0
sS'8.2'
p2382
F0
sS'8.5'
p2383
F0
sS'8.4'
p2384
F0
sS'8.7'
p2385
F0
sS'8.6'
p2386
F0
sS'8.9'
p2387
F0
sS'8.8'
p2388
F0
sS'6.19'
p2389
F0
sS'6.18'
p2390
F0
sS'6.13'
p2391
F0
sS'6.12'
p2392
F0
sS'6.11'
p2393
F0.090909090909090912
sS'6.10'
p2394
F0.10000000000000001
sS'6.17'
p2395
F0
sS'6.16'
p2396
F0
sS'6.15'
p2397
F0
sS'6.14'
p2398
F0
sS'5.12'
p2399
F0
sS'5.13'
p2400
F0
sS'5.10'
p2401
F0
sS'5.11'
p2402
F0
sS'8.20'
p2403
F0
sS'8.21'
p2404
F0
sS'8.22'
p2405
F0
sS'8.23'
p2406
F0
sS'3.4'
p2407
F0
sS'3.5'
p2408
F0
sS'1.4'
p2409
F0
sS'1.5'
p2410
F0
sS'1.6'
p2411
F0
sS'1.7'
p2412
F0
sS'1.1'
p2413
F0.17647058823529413
sS'1.2'
p2414
F0.16666666666666666
sS'1.3'
p2415
F0
sS'1.8'
p2416
F0
sS'8.19'
p2417
F0
sS'7.7'
p2418
F0
sS'4.5'
p2419
F0
sS'4.4'
p2420
F0
sS'4.7'
p2421
F0
sS'4.6'
p2422
F0
sS'4.1'
p2423
F0.071428571428571425
sS'5.5'
p2424
F0
sS'4.3'
p2425
F0
sS'4.2'
p2426
F0
sS'5.8'
p2427
F0
sS'5.9'
p2428
F0
sS'4.9'
p2429
F0
sS'4.8'
p2430
F0
sS'3.8'
p2431
F0
sS'3.9'
p2432
F0
sS'5.1'
p2433
F0.125
sS'5.2'
p2434
F0
sS'5.3'
p2435
F0
sS'5.4'
p2436
F0
sS'8.24'
p2437
F0
sS'5.6'
p2438
F0
sS'8.25'
p2439
F0
sS'5.7'
p2440
F0
sS'6.24'
p2441
F0
sS'6.25'
p2442
F0
sS'6.22'
p2443
F0
sS'6.23'
p2444
F0
sS'6.20'
p2445
F0
sS'6.21'
p2446
F0
ssS'053-15491914'
p2447
(dp2448
S'7.2'
p2449
F0
sS'7.3'
p2450
F0
sS'6.5'
p2451
F0.1111111111111111
sS'7.1'
p2452
F0
sS'7.6'
p2453
F0
sS'6.2'
p2454
F0
sS'6.1'
p2455
F0
sS'7.5'
p2456
F0
sS'6.9'
p2457
F0
sS'6.8'
p2458
F0.066666666666666666
sS'2.10'
p2459
F0
sS'6.7'
p2460
F0
sS'6.6'
p2461
F0.66666666666666663
sS'6.4'
p2462
F0
sS'6.3'
p2463
F0
sS'4.11'
p2464
F0
sS'4.10'
p2465
F0.090909090909090912
sS'4.13'
p2466
F0
sS'4.12'
p2467
F0
sS'4.15'
p2468
F0.040000000000000001
sS'4.14'
p2469
F0.17647058823529413
sS'3.10'
p2470
F0
sS'3.11'
p2471
F0
sS'3.12'
p2472
F0
sS'3.13'
p2473
F0
sS'3.14'
p2474
F0
sS'3.15'
p2475
F0
sS'3.16'
p2476
F0.5
sS'3.6'
p2477
F0
sS'3.7'
p2478
F0.25
sS'2.9'
p2479
F0
sS'2.8'
p2480
F0
sS'3.2'
p2481
F0
sS'3.3'
p2482
F0
sS'3.1'
p2483
F0
sS'2.3'
p2484
F0
sS'2.2'
p2485
F0
sS'2.1'
p2486
F0
sS'2.7'
p2487
F0.1111111111111111
sS'2.6'
p2488
F0.11764705882352941
sS'2.5'
p2489
F0.028571428571428571
sS'2.4'
p2490
F0
sS'5.21'
p2491
F0
sS'5.20'
p2492
F0
sS'8.1'
p2493
F0.0625
sS'8.3'
p2494
F0
sS'8.2'
p2495
F0
sS'6.13'
p2496
F0
sS'6.12'
p2497
F0.5
sS'6.11'
p2498
F0
sS'6.10'
p2499
F0
sS'6.16'
p2500
F0.10000000000000001
sS'6.15'
p2501
F0
sS'6.14'
p2502
F0
sS'5.12'
p2503
F0
sS'5.13'
p2504
F0
sS'5.10'
p2505
F0
sS'5.11'
p2506
F0
sS'5.16'
p2507
F0
sS'5.17'
p2508
F0
sS'5.14'
p2509
F0
sS'5.15'
p2510
F0
sS'5.18'
p2511
F0
sS'5.19'
p2512
F0
sS'3.4'
p2513
F0
sS'3.5'
p2514
F0
sS'1.4'
p2515
F0
sS'1.5'
p2516
F0
sS'1.1'
p2517
F0.1875
sS'1.2'
p2518
F0.23076923076923078
sS'1.3'
p2519
F0
sS'4.5'
p2520
F0
sS'4.4'
p2521
F0
sS'4.7'
p2522
F0
sS'4.6'
p2523
F0
sS'4.1'
p2524
F0
sS'5.5'
p2525
F0
sS'4.3'
p2526
F0
sS'4.2'
p2527
F0
sS'5.8'
p2528
F0
sS'5.9'
p2529
F0
sS'4.9'
p2530
F0
sS'4.8'
p2531
F0
sS'3.8'
p2532
F0.15384615384615385
sS'7.4'
p2533
F0.16666666666666666
sS'3.9'
p2534
F1
sS'5.1'
p2535
F0.052631578947368418
sS'5.2'
p2536
F0
sS'5.3'
p2537
F0
sS'5.4'
p2538
F0
sS'5.6'
p2539
F0
sS'5.7'
p2540
F0
ssS'059-11070771'
p2541
(dp2542
S'1.4'
p2543
F0
sS'1.5'
p2544
F0
sS'1.6'
p2545
F0
sS'1.7'
p2546
F0
sS'7.10'
p2547
F0.5
sS'1.1'
p2548
F0.11764705882352941
sS'1.2'
p2549
F0.33333333333333331
sS'1.3'
p2550
F0
sS'3.10'
p2551
F0
sS'3.11'
p2552
F0
sS'7.5'
p2553
F0
sS'1.8'
p2554
F0
sS'1.9'
p2555
F0
sS'3.6'
p2556
F0
sS'3.7'
p2557
F0
sS'3.4'
p2558
F0
sS'3.5'
p2559
F0
sS'3.2'
p2560
F0
sS'3.3'
p2561
F0
sS'6.1'
p2562
F0
sS'3.1'
p2563
F0.090909090909090912
sS'2.3'
p2564
F0
sS'2.2'
p2565
F0.40000000000000002
sS'2.1'
p2566
F0
sS'7.9'
p2567
F0
sS'7.7'
p2568
F0
sS'7.8'
p2569
F0
sS'2.5'
p2570
F0
sS'7.11'
p2571
F0
sS'4.5'
p2572
F0
sS'4.4'
p2573
F0
sS'5.2'
p2574
F0
sS'4.6'
p2575
F0
sS'4.1'
p2576
F0.20000000000000001
sS'5.5'
p2577
F0
sS'1.10'
p2578
F0.14285714285714285
sS'1.11'
p2579
F0.5
sS'5.8'
p2580
F0
sS'5.9'
p2581
F0
sS'7.13'
p2582
F0
sS'3.8'
p2583
F0
sS'7.4'
p2584
F0
sS'2.4'
p2585
F0
sS'7.16'
p2586
F0
sS'5.1'
p2587
F0.1111111111111111
sS'5.10'
p2588
F0.052631578947368418
sS'5.3'
p2589
F0
sS'5.4'
p2590
F0
sS'3.9'
p2591
F0
sS'7.3'
p2592
F0
sS'7.1'
p2593
F0
sS'7.2'
p2594
F0
sS'7.14'
p2595
F0
sS'5.6'
p2596
F0
sS'6.6'
p2597
F0
sS'7.12'
p2598
F0
sS'5.7'
p2599
F0
sS'6.5'
p2600
F0
sS'7.15'
p2601
F0
sS'6.4'
p2602
F0
sS'4.2'
p2603
F0.071428571428571425
sS'6.7'
p2604
F0
sS'4.3'
p2605
F0
sS'6.3'
p2606
F0.18181818181818182
sS'7.6'
p2607
F0
sS'6.2'
p2608
F0.035714285714285712
ssS'067-1027069'
p2609
(dp2610
S'1.4'
p2611
F0
sS'1.5'
p2612
F0
sS'1.6'
p2613
F0
sS'1.7'
p2614
F0
sS'1.1'
p2615
F0.085714285714285715
sS'1.2'
p2616
F0.14285714285714285
sS'1.3'
p2617
F0
sS'3.10'
p2618
F0
sS'3.11'
p2619
F0
sS'3.12'
p2620
F0
sS'3.13'
p2621
F0.1111111111111111
sS'1.8'
p2622
F0
sS'1.9'
p2623
F0
sS'3.6'
p2624
F0
sS'3.7'
p2625
F0
sS'2.9'
p2626
F0
sS'2.8'
p2627
F0
sS'3.2'
p2628
F0.083333333333333329
sS'3.3'
p2629
F0.047619047619047616
sS'5.21'
p2630
F0.027777777777777776
sS'3.1'
p2631
F0
sS'2.3'
p2632
F0
sS'2.2'
p2633
F0
sS'2.1'
p2634
F0.75
sS'2.7'
p2635
F0
sS'2.6'
p2636
F0
sS'2.5'
p2637
F0
sS'2.4'
p2638
F0
sS'4.5'
p2639
F0
sS'4.4'
p2640
F0
sS'5.2'
p2641
F0.1111111111111111
sS'5.3'
p2642
F0
sS'4.1'
p2643
F0
sS'5.5'
p2644
F0
sS'1.10'
p2645
F0.068965517241379309
sS'4.2'
p2646
F0.045454545454545456
sS'5.8'
p2647
F0
sS'5.9'
p2648
F0
sS'6.1'
p2649
F0
sS'5.20'
p2650
F0.076923076923076927
sS'5.25'
p2651
F0
sS'6.9'
p2652
F0
sS'2.16'
p2653
F0
sS'2.15'
p2654
F0
sS'6.8'
p2655
F0
sS'2.13'
p2656
F0
sS'2.12'
p2657
F0.032258064516129031
sS'3.8'
p2658
F0
sS'2.10'
p2659
F0.25
sS'5.1'
p2660
F0
sS'3.14'
p2661
F0.1111111111111111
sS'6.2'
p2662
F0.10000000000000001
sS'6.10'
p2663
F0
sS'3.15'
p2664
F0.035714285714285712
sS'5.12'
p2665
F0.0625
sS'5.13'
p2666
F0.16666666666666666
sS'5.10'
p2667
F0.13636363636363635
sS'5.11'
p2668
F0.17647058823529413
sS'5.16'
p2669
F0
sS'5.17'
p2670
F0.050000000000000003
sS'5.14'
p2671
F0.14285714285714285
sS'5.15'
p2672
F0.038461538461538464
sS'5.4'
p2673
F0
sS'5.18'
p2674
F0.14285714285714285
sS'5.19'
p2675
F0.10526315789473684
sS'3.9'
p2676
F0
sS'6.7'
p2677
F0
sS'2.14'
p2678
F0
sS'5.6'
p2679
F0
sS'6.6'
p2680
F0
sS'5.7'
p2681
F0
sS'3.4'
p2682
F0
sS'6.5'
p2683
F0.055555555555555552
sS'6.3'
p2684
F0.015151515151515152
sS'5.24'
p2685
F0
sS'3.5'
p2686
F0
sS'2.11'
p2687
F0.16666666666666666
sS'4.3'
p2688
F0
sS'5.23'
p2689
F0
sS'6.4'
p2690
F0.14285714285714285
sS'5.22'
p2691
F0.038461538461538464
ssS'059-7186494'
p2692
(dp2693
S'1.4'
p2694
F0
sS'1.5'
p2695
F0
sS'1.6'
p2696
F0
sS'1.7'
p2697
F0
sS'4.15'
p2698
F0.14285714285714285
sS'1.1'
p2699
F0.25
sS'1.2'
p2700
F0.16666666666666666
sS'1.3'
p2701
F0.076923076923076927
sS'3.10'
p2702
F0
sS'3.11'
p2703
F0
sS'3.12'
p2704
F0
sS'3.13'
p2705
F0
sS'1.8'
p2706
F0
sS'1.9'
p2707
F0
sS'3.6'
p2708
F0
sS'3.7'
p2709
F0
sS'3.4'
p2710
F0
sS'2.8'
p2711
F0
sS'3.2'
p2712
F0
sS'3.3'
p2713
F0
sS'3.1'
p2714
F0.16666666666666666
sS'2.3'
p2715
F0.125
sS'2.2'
p2716
F0.33333333333333331
sS'2.1'
p2717
F0.27272727272727271
sS'2.7'
p2718
F0
sS'2.6'
p2719
F0
sS'2.5'
p2720
F0
sS'2.4'
p2721
F0
sS'4.5'
p2722
F0
sS'4.4'
p2723
F0
sS'4.7'
p2724
F0
sS'4.6'
p2725
F0
sS'1.12'
p2726
F0.25
sS'4.17'
p2727
F0
sS'1.10'
p2728
F0.20000000000000001
sS'1.11'
p2729
F1
sS'4.16'
p2730
F0
sS'4.9'
p2731
F0
sS'4.8'
p2732
F0
sS'4.19'
p2733
F0
sS'3.8'
p2734
F0
sS'4.18'
p2735
F0
sS'4.11'
p2736
F0.18181818181818182
sS'3.9'
p2737
F0
sS'3.14'
p2738
F0
sS'4.14'
p2739
F0.15789473684210525
sS'4.20'
p2740
F0
sS'4.12'
p2741
F0.2857142857142857
sS'4.10'
p2742
F0.33333333333333331
sS'4.1'
p2743
F0.29999999999999999
sS'4.22'
p2744
F0
sS'4.3'
p2745
F0
sS'4.2'
p2746
F0
sS'4.21'
p2747
F0
sS'3.5'
p2748
F0
sS'4.13'
p2749
F0.14285714285714285
ssS'074-2313297'
p2750
(dp2751
S'7.14'
p2752
F0
sS'7.15'
p2753
F0
sS'7.16'
p2754
F0
sS'7.17'
p2755
F0
sS'7.10'
p2756
F0
sS'7.11'
p2757
F0
sS'7.12'
p2758
F0
sS'7.13'
p2759
F0
sS'7.18'
p2760
F0
sS'7.19'
p2761
F0
sS'7.2'
p2762
F0.047619047619047616
sS'7.3'
p2763
F0.16666666666666666
sS'6.5'
p2764
F0
sS'6.4'
p2765
F0
sS'6.3'
p2766
F0
sS'7.7'
p2767
F0
sS'6.1'
p2768
F0
sS'7.5'
p2769
F0.125
sS'7.8'
p2770
F0
sS'7.9'
p2771
F0
sS'8.11'
p2772
F0
sS'8.10'
p2773
F0
sS'6.9'
p2774
F0
sS'6.8'
p2775
F0
sS'1.12'
p2776
F0
sS'1.13'
p2777
F0
sS'1.10'
p2778
F0.33333333333333331
sS'1.11'
p2779
F0
sS'2.13'
p2780
F0
sS'2.12'
p2781
F0.090909090909090912
sS'2.11'
p2782
F0
sS'2.10'
p2783
F0
sS'6.7'
p2784
F0
sS'6.6'
p2785
F0
sS'7.1'
p2786
F0
sS'7.6'
p2787
F0.034482758620689655
sS'6.2'
p2788
F0
sS'4.11'
p2789
F0.071428571428571425
sS'4.10'
p2790
F0.10000000000000001
sS'4.12'
p2791
F0.10000000000000001
sS'7.4'
p2792
F0
sS'3.6'
p2793
F0
sS'3.7'
p2794
F0
sS'2.9'
p2795
F0
sS'2.8'
p2796
F0.090909090909090912
sS'3.2'
p2797
F0.037037037037037035
sS'3.3'
p2798
F0.035714285714285712
sS'3.1'
p2799
F0.080000000000000002
sS'2.3'
p2800
F0.23076923076923078
sS'2.2'
p2801
F0.076923076923076927
sS'2.1'
p2802
F0
sS'2.7'
p2803
F0.0625
sS'2.6'
p2804
F0.055555555555555552
sS'2.5'
p2805
F0.10000000000000001
sS'2.4'
p2806
F0.10000000000000001
sS'8.13'
p2807
F0
sS'8.12'
p2808
F0
sS'7.21'
p2809
F0.037037037037037035
sS'7.20'
p2810
F0
sS'8.1'
p2811
F0
sS'8.3'
p2812
F0
sS'8.2'
p2813
F0.076923076923076927
sS'8.5'
p2814
F0.043478260869565216
sS'8.4'
p2815
F0.058823529411764705
sS'8.7'
p2816
F0.0625
sS'8.6'
p2817
F0
sS'8.9'
p2818
F0
sS'8.8'
p2819
F0
sS'5.12'
p2820
F0
sS'5.13'
p2821
F0
sS'5.10'
p2822
F0
sS'5.11'
p2823
F0
sS'5.14'
p2824
F0
sS'5.15'
p2825
F0
sS'3.4'
p2826
F0.071428571428571425
sS'3.5'
p2827
F0
sS'1.4'
p2828
F0
sS'1.5'
p2829
F0
sS'1.6'
p2830
F0
sS'1.7'
p2831
F0
sS'1.1'
p2832
F0.096774193548387094
sS'1.2'
p2833
F0
sS'1.3'
p2834
F0
sS'1.8'
p2835
F0
sS'1.9'
p2836
F0
sS'4.5'
p2837
F0.083333333333333329
sS'4.4'
p2838
F0.14285714285714285
sS'4.7'
p2839
F0
sS'4.6'
p2840
F0.041666666666666664
sS'5.4'
p2841
F0
sS'5.5'
p2842
F0
sS'5.6'
p2843
F0
sS'5.7'
p2844
F0
sS'5.8'
p2845
F0
sS'5.9'
p2846
F0
sS'4.9'
p2847
F0
sS'4.8'
p2848
F0
sS'3.8'
p2849
F0
sS'5.1'
p2850
F0
sS'5.2'
p2851
F0
sS'5.3'
p2852
F0
sS'4.1'
p2853
F0
sS'4.3'
p2854
F0.083333333333333329
sS'4.2'
p2855
F0.16666666666666666
ssS'059-15393869'
p2856
(dp2857
S'1.4'
p2858
F0
sS'1.5'
p2859
F0
sS'1.6'
p2860
F0
sS'1.7'
p2861
F0
sS'4.15'
p2862
F0
sS'1.1'
p2863
F0
sS'1.2'
p2864
F0
sS'1.3'
p2865
F0
sS'4.19'
p2866
F0
sS'4.18'
p2867
F0
sS'1.8'
p2868
F0
sS'1.9'
p2869
F0
sS'4.20'
p2870
F0
sS'3.4'
p2871
F0
sS'3.5'
p2872
F0
sS'3.2'
p2873
F0
sS'3.3'
p2874
F0
sS'6.1'
p2875
F0.375
sS'3.1'
p2876
F0.75
sS'2.3'
p2877
F0.090909090909090912
sS'2.2'
p2878
F1
sS'2.1'
p2879
F0.1875
sS'2.6'
p2880
F0
sS'2.5'
p2881
F0
sS'2.4'
p2882
F0
sS'1.16'
p2883
F0
sS'1.17'
p2884
F0
sS'5.2'
p2885
F0.1875
sS'1.15'
p2886
F0
sS'1.12'
p2887
F0
sS'1.13'
p2888
F0
sS'1.10'
p2889
F0.071428571428571425
sS'1.11'
p2890
F0
sS'5.8'
p2891
F0
sS'5.9'
p2892
F0
sS'4.16'
p2893
F0
sS'4.9'
p2894
F0
sS'4.8'
p2895
F0
sS'1.18'
p2896
F0
sS'1.19'
p2897
F0
sS'5.6'
p2898
F0
sS'4.11'
p2899
F0
sS'4.5'
p2900
F0
sS'4.4'
p2901
F0
sS'6.2'
p2902
F0.083333333333333329
sS'5.4'
p2903
F0
sS'1.14'
p2904
F0
sS'6.3'
p2905
F0
sS'4.14'
p2906
F0
sS'5.10'
p2907
F0.75
sS'4.6'
p2908
F0
sS'4.12'
p2909
F0
sS'4.10'
p2910
F0
sS'4.1'
p2911
F0.75
sS'5.3'
p2912
F0.23076923076923078
sS'5.5'
p2913
F0
sS'4.3'
p2914
F0
sS'5.7'
p2915
F0
sS'4.17'
p2916
F0
sS'5.1'
p2917
F0.15384615384615385
sS'4.2'
p2918
F0
sS'4.13'
p2919
F0
sS'4.7'
p2920
F0
sS'1.23'
p2921
F0
sS'1.22'
p2922
F0.066666666666666666
sS'1.21'
p2923
F0.0625
sS'1.20'
p2924
F0
sS'1.27'
p2925
F0
sS'1.26'
p2926
F0
sS'1.25'
p2927
F0
sS'1.24'
p2928
F0
ssS'015-2625401'
p2929
(dp2930
S'1.4'
p2931
F0.375
sS'1.5'
p2932
F0.1111111111111111
sS'1.6'
p2933
F0
sS'1.7'
p2934
F0
sS'4.15'
p2935
F0
sS'1.1'
p2936
F0
sS'1.2'
p2937
F1
sS'1.3'
p2938
F0.27272727272727271
sS'3.10'
p2939
F0
sS'3.11'
p2940
F0
sS'3.12'
p2941
F0
sS'1.8'
p2942
F0
sS'1.9'
p2943
F0
sS'3.6'
p2944
F0
sS'3.7'
p2945
F0.083333333333333329
sS'2.9'
p2946
F0
sS'2.8'
p2947
F0
sS'3.2'
p2948
F0
sS'3.3'
p2949
F0
sS'6.1'
p2950
F0
sS'3.1'
p2951
F0
sS'2.3'
p2952
F0
sS'2.2'
p2953
F0
sS'2.1'
p2954
F0
sS'6.3'
p2955
F0
sS'2.7'
p2956
F0.066666666666666666
sS'2.6'
p2957
F0.10344827586206896
sS'2.5'
p2958
F0.20000000000000001
sS'2.4'
p2959
F0.125
sS'1.16'
p2960
F1
sS'1.17'
p2961
F0.1111111111111111
sS'5.2'
p2962
F0.09375
sS'1.15'
p2963
F0.090909090909090912
sS'1.12'
p2964
F1
sS'1.13'
p2965
F0
sS'1.10'
p2966
F0.076923076923076927
sS'1.11'
p2967
F0.1111111111111111
sS'5.8'
p2968
F0
sS'5.9'
p2969
F0
sS'4.16'
p2970
F0
sS'4.9'
p2971
F0
sS'4.8'
p2972
F0
sS'1.18'
p2973
F0.034482758620689655
sS'1.19'
p2974
F0.03125
sS'6.5'
p2975
F0
sS'6.9'
p2976
F0
sS'4.18'
p2977
F0
sS'4.11'
p2978
F0.16666666666666666
sS'6.8'
p2979
F0
sS'3.8'
p2980
F0.375
sS'4.7'
p2981
F0
sS'4.5'
p2982
F0
sS'4.4'
p2983
F0
sS'6.13'
p2984
F0
sS'6.12'
p2985
F0
sS'6.11'
p2986
F0.10526315789473684
sS'6.10'
p2987
F0.40000000000000002
sS'1.14'
p2988
F0.0625
sS'6.14'
p2989
F0
sS'4.14'
p2990
F0
sS'5.10'
p2991
F0
sS'4.6'
p2992
F0
sS'4.12'
p2993
F0.13333333333333333
sS'4.10'
p2994
F0.066666666666666666
sS'4.1'
p2995
F0.16666666666666666
sS'3.9'
p2996
F0
sS'5.3'
p2997
F0.047619047619047616
sS'5.5'
p2998
F0
sS'6.7'
p2999
F0
sS'5.6'
p3000
F0
sS'6.6'
p3001
F0
sS'5.7'
p3002
F0
sS'3.5'
p3003
F0
sS'3.4'
p3004
F0
sS'4.17'
p3005
F0
sS'5.1'
p3006
F0
sS'6.4'
p3007
F0
sS'5.4'
p3008
F0.13636363636363635
sS'4.2'
p3009
F0
sS'4.13'
p3010
F0.25
sS'4.3'
p3011
F0
sS'1.22'
p3012
F0.052631578947368418
sS'1.21'
p3013
F0.5
sS'1.20'
p3014
F0.034482758620689655
sS'6.2'
p3015
F0
ssS'063-1009111'
p3016
(dp3017
S'1.4'
p3018
F0
sS'1.5'
p3019
F0
sS'1.6'
p3020
F0
sS'1.7'
p3021
F0
sS'4.15'
p3022
F0
sS'1.1'
p3023
F0.086956521739130432
sS'1.2'
p3024
F0.16666666666666666
sS'1.3'
p3025
F0
sS'3.10'
p3026
F0
sS'3.11'
p3027
F0.090909090909090912
sS'3.12'
p3028
F0.16666666666666666
sS'1.8'
p3029
F0
sS'1.9'
p3030
F0
sS'3.6'
p3031
F0.0625
sS'3.7'
p3032
F0.076923076923076927
sS'3.4'
p3033
F0.052631578947368418
sS'3.5'
p3034
F0.032258064516129031
sS'3.2'
p3035
F0.090909090909090912
sS'3.3'
p3036
F0.23076923076923078
sS'6.1'
p3037
F0
sS'3.1'
p3038
F0.25
sS'2.3'
p3039
F0.10000000000000001
sS'2.2'
p3040
F0.14285714285714285
sS'2.1'
p3041
F0
sS'2.7'
p3042
F0.10000000000000001
sS'2.6'
p3043
F0.090909090909090912
sS'2.5'
p3044
F0.20000000000000001
sS'2.4'
p3045
F0.1111111111111111
sS'1.16'
p3046
F0
sS'1.17'
p3047
F0
sS'5.2'
p3048
F0.0625
sS'1.15'
p3049
F0
sS'1.12'
p3050
F0
sS'1.13'
p3051
F0.055555555555555552
sS'1.10'
p3052
F0.096774193548387094
sS'1.11'
p3053
F0.10344827586206896
sS'5.8'
p3054
F0
sS'5.9'
p3055
F0
sS'4.9'
p3056
F0
sS'4.8'
p3057
F0
sS'1.18'
p3058
F0.33333333333333331
sS'1.19'
p3059
F0.047619047619047616
sS'6.9'
p3060
F0
sS'4.11'
p3061
F0.16666666666666666
sS'6.8'
p3062
F0
sS'4.6'
p3063
F0
sS'3.8'
p3064
F0.10000000000000001
sS'4.7'
p3065
F0
sS'4.5'
p3066
F0
sS'4.4'
p3067
F0
sS'5.4'
p3068
F0.038461538461538464
sS'1.14'
p3069
F0
sS'4.3'
p3070
F0
sS'4.14'
p3071
F0
sS'5.13'
p3072
F0.33333333333333331
sS'5.10'
p3073
F0.14285714285714285
sS'5.11'
p3074
F0.17647058823529413
sS'5.16'
p3075
F0.14285714285714285
sS'5.17'
p3076
F0.16666666666666666
sS'5.14'
p3077
F0.15384615384615385
sS'5.15'
p3078
F0
sS'4.10'
p3079
F0.33333333333333331
sS'4.1'
p3080
F0
sS'3.9'
p3081
F0
sS'4.12'
p3082
F0.0625
sS'5.3'
p3083
F0
sS'5.5'
p3084
F0.016666666666666666
sS'5.12'
p3085
F0.125
sS'5.6'
p3086
F0
sS'6.6'
p3087
F0.035714285714285712
sS'5.7'
p3088
F0
sS'6.5'
p3089
F0.11538461538461539
sS'6.3'
p3090
F0.21428571428571427
sS'5.1'
p3091
F0
sS'6.4'
p3092
F0.033333333333333333
sS'4.2'
p3093
F0
sS'4.13'
p3094
F0.083333333333333329
sS'6.7'
p3095
F0.035714285714285712
sS'1.23'
p3096
F0
sS'1.22'
p3097
F0
sS'1.21'
p3098
F0
sS'1.20'
p3099
F0.33333333333333331
sS'6.2'
p3100
F0.13636363636363635
ssS'053-15927827'
p3101
(dp3102
S'7.10'
p3103
F0
sS'7.11'
p3104
F0
sS'7.12'
p3105
F0
sS'7.13'
p3106
F0
sS'7.2'
p3107
F0
sS'7.3'
p3108
F0
sS'6.5'
p3109
F0.5
sS'7.1'
p3110
F0
sS'6.3'
p3111
F0
sS'6.2'
p3112
F0
sS'6.1'
p3113
F0
sS'7.5'
p3114
F0.16666666666666666
sS'7.8'
p3115
F0.055555555555555552
sS'7.9'
p3116
F0
sS'6.9'
p3117
F0
sS'6.8'
p3118
F0.29999999999999999
sS'2.19'
p3119
F0
sS'2.18'
p3120
F0.052631578947368418
sS'2.17'
p3121
F0.076923076923076927
sS'2.16'
p3122
F0.18181818181818182
sS'2.15'
p3123
F0.5
sS'2.14'
p3124
F0.21428571428571427
sS'2.13'
p3125
F0.25
sS'2.12'
p3126
F0.42857142857142855
sS'2.11'
p3127
F0.20000000000000001
sS'2.10'
p3128
F0.33333333333333331
sS'6.7'
p3129
F0.058823529411764705
sS'6.6'
p3130
F0.10714285714285714
sS'6.4'
p3131
F0
sS'7.6'
p3132
F0.25
sS'7.7'
p3133
F0.20000000000000001
sS'4.11'
p3134
F0
sS'4.10'
p3135
F0
sS'4.13'
p3136
F0
sS'4.12'
p3137
F0
sS'4.15'
p3138
F3
sS'7.4'
p3139
F0
sS'4.17'
p3140
F0.14285714285714285
sS'4.16'
p3141
F0
sS'3.10'
p3142
F0
sS'3.11'
p3143
F0
sS'3.12'
p3144
F0
sS'3.13'
p3145
F0
sS'3.14'
p3146
F0
sS'3.15'
p3147
F0
sS'3.6'
p3148
F0
sS'3.7'
p3149
F0
sS'2.9'
p3150
F0
sS'2.8'
p3151
F0
sS'3.2'
p3152
F0.083333333333333329
sS'3.3'
p3153
F3
sS'3.1'
p3154
F0
sS'2.3'
p3155
F0
sS'2.2'
p3156
F0
sS'2.1'
p3157
F0
sS'2.7'
p3158
F0
sS'2.6'
p3159
F0
sS'2.5'
p3160
F0
sS'3.9'
p3161
F0
sS'4.21'
p3162
F0.050000000000000003
sS'4.14'
p3163
F0
sS'4.19'
p3164
F0
sS'4.18'
p3165
F0.33333333333333331
sS'3.4'
p3166
F0.10526315789473684
sS'3.5'
p3167
F0.071428571428571425
sS'1.4'
p3168
F0
sS'1.5'
p3169
F0.16666666666666666
sS'1.6'
p3170
F0
sS'1.7'
p3171
F0
sS'1.1'
p3172
F0.12
sS'1.2'
p3173
F0.14999999999999999
sS'1.3'
p3174
F0.1111111111111111
sS'4.5'
p3175
F0
sS'4.4'
p3176
F0
sS'4.7'
p3177
F0
sS'4.6'
p3178
F0
sS'5.4'
p3179
F0.076923076923076927
sS'5.5'
p3180
F0.045454545454545456
sS'4.3'
p3181
F0
sS'4.2'
p3182
F0
sS'4.9'
p3183
F0
sS'4.8'
p3184
F0
sS'3.8'
p3185
F0
sS'2.4'
p3186
F0
sS'5.1'
p3187
F0
sS'5.2'
p3188
F0.15789473684210525
sS'5.3'
p3189
F0.050000000000000003
sS'4.20'
p3190
F0
sS'4.1'
p3191
F0
sS'4.22'
p3192
F0
sS'4.23'
p3193
F0
sS'5.6'
p3194
F0.40000000000000002
sS'5.7'
p3195
F0
ssS'067-11978590'
p3196
(dp3197
S'7.10'
p3198
F0
sS'6.7'
p3199
F0
sS'6.6'
p3200
F0
sS'6.5'
p3201
F0
sS'6.4'
p3202
F0
sS'6.3'
p3203
F0
sS'6.2'
p3204
F0.16666666666666666
sS'6.1'
p3205
F0.0625
sS'7.5'
p3206
F0
sS'7.8'
p3207
F0
sS'7.9'
p3208
F0
sS'6.9'
p3209
F0
sS'6.8'
p3210
F0
sS'1.12'
p3211
F0.20000000000000001
sS'1.13'
p3212
F0
sS'1.10'
p3213
F0.083333333333333329
sS'1.11'
p3214
F0.15789473684210525
sS'2.11'
p3215
F0.041666666666666664
sS'2.10'
p3216
F0
sS'7.2'
p3217
F0
sS'7.3'
p3218
F0.052631578947368418
sS'7.1'
p3219
F0.14285714285714285
sS'7.6'
p3220
F0
sS'7.7'
p3221
F0
sS'4.11'
p3222
F0
sS'4.10'
p3223
F0
sS'4.13'
p3224
F0.040000000000000001
sS'4.12'
p3225
F0.058823529411764705
sS'4.15'
p3226
F0
sS'4.14'
p3227
F0
sS'4.17'
p3228
F0
sS'4.16'
p3229
F0
sS'4.19'
p3230
F0
sS'4.18'
p3231
F0
sS'3.6'
p3232
F0
sS'3.7'
p3233
F1
sS'2.9'
p3234
F0
sS'2.8'
p3235
F0
sS'3.2'
p3236
F0.25
sS'3.3'
p3237
F0.125
sS'3.1'
p3238
F0.1111111111111111
sS'2.3'
p3239
F0.07407407407407407
sS'2.2'
p3240
F0.10000000000000001
sS'2.1'
p3241
F0
sS'2.7'
p3242
F0
sS'2.6'
p3243
F0
sS'2.5'
p3244
F0
sS'2.4'
p3245
F0.090909090909090912
sS'6.19'
p3246
F0
sS'6.18'
p3247
F0.1111111111111111
sS'6.13'
p3248
F0
sS'6.12'
p3249
F0
sS'6.11'
p3250
F0
sS'6.10'
p3251
F0.058823529411764705
sS'6.17'
p3252
F0.043478260869565216
sS'6.16'
p3253
F0
sS'6.15'
p3254
F0.058823529411764705
sS'6.14'
p3255
F0.026315789473684209
sS'5.12'
p3256
F0.20000000000000001
sS'5.13'
p3257
F0.045454545454545456
sS'5.10'
p3258
F0.081081081081081086
sS'5.11'
p3259
F0.0625
sS'5.16'
p3260
F0.16666666666666666
sS'5.17'
p3261
F1
sS'5.14'
p3262
F0
sS'5.15'
p3263
F1
sS'5.18'
p3264
F0.2857142857142857
sS'5.19'
p3265
F1.5
sS'3.4'
p3266
F0
sS'3.5'
p3267
F0.16666666666666666
sS'1.4'
p3268
F0
sS'1.5'
p3269
F0
sS'1.6'
p3270
F0
sS'1.7'
p3271
F0
sS'1.1'
p3272
F0.125
sS'1.2'
p3273
F0
sS'1.3'
p3274
F0
sS'1.8'
p3275
F0
sS'1.9'
p3276
F0
sS'4.5'
p3277
F0
sS'4.4'
p3278
F0
sS'4.7'
p3279
F0
sS'4.6'
p3280
F0
sS'5.4'
p3281
F0
sS'5.5'
p3282
F0
sS'5.6'
p3283
F0
sS'5.7'
p3284
F0
sS'5.8'
p3285
F0
sS'5.9'
p3286
F0
sS'4.9'
p3287
F0
sS'4.8'
p3288
F0
sS'3.8'
p3289
F0
sS'7.4'
p3290
F0
sS'3.9'
p3291
F0
sS'5.1'
p3292
F0.10000000000000001
sS'5.2'
p3293
F0
sS'5.3'
p3294
F0
sS'4.20'
p3295
F0
sS'4.1'
p3296
F0.5
sS'4.3'
p3297
F0
sS'4.2'
p3298
F0
sS'6.24'
p3299
F0
sS'6.22'
p3300
F0
sS'6.23'
p3301
F0
sS'6.20'
p3302
F0
sS'6.21'
p3303
F0.14285714285714285
ss.