(dp1
S'080-5970135'
p2
(lp3
S'3.2'
p4
aS'5.1'
p5
aS'5.2'
p6
aS'6.3'
p7
aS'6.4'
p8
aS'7.2'
p9
aS'8.1'
p10
asS'066-15270802'
p11
(lp12
S'1.1'
p13
aS'1.5'
p14
aS'2.3'
p15
aS'2.5'
p16
aS'3.1'
p17
aS'5.4'
p18
aS'7.1'
p19
asS'059-9045120'
p20
(lp21
S'2.2'
p22
aS'2.3'
p23
aS'4.4'
p24
aS'4.8'
p25
aS'4.9'
p26
aS'5.1'
p27
aS'5.9'
p28
asS'075-16233750'
p29
(lp30
S'1.2'
p31
aS'2.2'
p32
aS'2.3'
p33
aS'4.1'
p34
aS'4.2'
p35
asS'076-4622322'
p36
(lp37
S'1.15'
p38
aS'3.2'
p39
aS'3.3'
p40
aS'4.1'
p41
aS'7.2'
p42
aS'7.4'
p43
asS'074-6324762'
p44
(lp45
S'1.1'
p46
aS'1.11'
p47
aS'1.5'
p48
aS'2.2'
p49
aS'2.3'
p50
aS'3.5'
p51
aS'3.7'
p52
asS'078-1321398'
p53
(lp54
S'1.2'
p55
aS'2.1'
p56
aS'4.2'
p57
aS'5.3'
p58
aS'5.4'
p59
asS'074-0998972'
p60
(lp61
S'1.1'
p62
aS'2.3'
p63
aS'2.6'
p64
aS'2.7'
p65
aS'3.6'
p66
aS'3.7'
p67
asS'058-13714734'
p68
(lp69
S'3.7'
p70
aS'5.5'
p71
aS'6.5'
p72
aS'6.6'
p73
aS'6.7'
p74
aS'6.8'
p75
aS'6.9'
p76
asS'060-0021651'
p77
(lp78
S'1.3'
p79
aS'1.5'
p80
aS'3.1'
p81
aS'4.3'
p82
aS'6.1'
p83
aS'8.3'
p84
asS'079-14194071'
p85
(lp86
S'1.2'
p87
aS'1.3'
p88
aS'2.1'
p89
aS'3.2'
p90
aS'5.2'
p91
aS'5.3'
p92
asS'068-16207900'
p93
(lp94
S'1.6'
p95
aS'2.12'
p96
aS'2.14'
p97
aS'4.2'
p98
aS'4.6'
p99
aS'5.22'
p100
aS'6.3'
p101
asS'026-4380722'
p102
(lp103
S'1.1'
p104
aS'1.8'
p105
aS'2.1'
p106
aS'3.1'
p107
aS'4.4'
p108
aS'4.5'
p109
asS'078-3797219'
p110
(lp111
S'11.6'
p112
aS'11.7'
p113
aS'2.3'
p114
aS'3.2'
p115
aS'7.2'
p116
aS'7.3'
p117
aS'7.4'
p118
aS'7.5'
p119
asS'078-8112187'
p120
(lp121
S'1.2'
p122
aS'2.1'
p123
aS'3.1'
p124
aS'4.1'
p125
aS'6.4'
p126
aS'6.5'
p127
aS'7.2'
p128
asS'075-15948761'
p129
(lp130
S'1.2'
p131
aS'1.5'
p132
aS'2.2'
p133
aS'2.4'
p134
aS'2.5'
p135
aS'4.3'
p136
aS'5.4'
p137
aS'6.7'
p138
asS'079-4736087'
p139
(lp140
S'1.2'
p141
aS'1.3'
p142
aS'3.2'
p143
aS'5.4'
p144
aS'5.5'
p145
asS'023-2964247'
p146
(lp147
S'1.1'
p148
aS'1.2'
p149
aS'2.1'
p150
aS'2.3'
p151
aS'4.2'
p152
aS'5.3'
p153
aS'7.3'
p154
asS'107-16164699'
p155
(lp156
S'2.3'
p157
aS'2.4'
p158
aS'3.8'
p159
aS'4.8'
p160
aS'6.1'
p161
aS'6.2'
p162
aS'7.1'
p163
asS'070-4154814'
p164
(lp165
S'1.2'
p166
aS'1.3'
p167
aS'2.1'
p168
aS'3.10'
p169
aS'3.11'
p170
aS'3.4'
p171
aS'5.2'
p172
asS'061-10140940'
p173
(lp174
S'1.11'
p175
aS'1.3'
p176
aS'1.6'
p177
aS'3.3'
p178
aS'4.1'
p179
aS'4.3'
p180
aS'4.4'
p181
asS'074-14150913'
p182
(lp183
S'2.1'
p184
aS'3.4'
p185
aS'6.2'
p186
aS'6.3'
p187
aS'6.6'
p188
aS'7.2'
p189
asS'053-15927827'
p190
(lp191
S'2.2'
p192
aS'2.4'
p193
aS'2.7'
p194
aS'3.9'
p195
aS'4.10'
p196
aS'4.7'
p197
aS'5.6'
p198
aS'6.5'
p199
asS'060-4302525'
p200
(lp201
S'1.7'
p202
aS'3.1'
p203
aS'4.1'
p204
aS'6.3'
p205
aS'7.1'
p206
asS'078-15693133'
p207
(lp208
S'1.3'
p209
aS'1.4'
p210
aS'2.12'
p211
aS'3.2'
p212
aS'4.3'
p213
aS'4.4'
p214
aS'4.6'
p215
asS'078-6832141'
p216
(lp217
S'2.2'
p218
aS'3.2'
p219
aS'4.5'
p220
aS'5.3'
p221
aS'8.10'
p222
aS'8.11'
p223
aS'8.12'
p224
aS'8.13'
p225
asS'094-2808305'
p226
(lp227
S'1.3'
p228
aS'1.4'
p229
aS'2.5'
p230
aS'4.1'
p231
aS'4.29'
p232
asS'071-10334272'
p233
(lp234
S'1.1'
p235
aS'3.2'
p236
aS'4.2'
p237
aS'5.3'
p238
aS'5.5'
p239
asS'007-7484738'
p240
(lp241
S'1.1'
p242
aS'2.5'
p243
aS'3.6'
p244
aS'3.8'
p245
aS'5.3'
p246
aS'5.5'
p247
asS'077-4500595'
p248
(lp249
S'1.1'
p250
aS'1.3'
p251
aS'1.6'
p252
aS'3.2'
p253
aS'4.2'
p254
asS'043-10248963'
p255
(lp256
S'1.1'
p257
aS'1.2'
p258
aS'2.4'
p259
aS'7.2'
p260
aS'8.1'
p261
aS'8.2'
p262
asS'053-15491914'
p263
(lp264
S'1.1'
p265
aS'1.2'
p266
aS'3.14'
p267
aS'3.16'
p268
aS'3.8'
p269
aS'6.13'
p270
aS'6.4'
p271
asS'067-1027069'
p272
(lp273
S'1.3'
p274
aS'2.1'
p275
aS'2.2'
p276
aS'2.3'
p277
aS'5.3'
p278
aS'5.5'
p279
asS'059-7186494'
p280
(lp281
S'1.3'
p282
aS'2.2'
p283
aS'4.1'
p284
aS'4.2'
p285
aS'4.4'
p286
asS'074-2313297'
p287
(lp288
S'1.2'
p289
aS'2.7'
p290
aS'4.5'
p291
aS'4.7'
p292
aS'7.15'
p293
aS'7.17'
p294
asS'059-15393869'
p295
(lp296
S'2.2'
p297
aS'3.1'
p298
aS'4.1'
p299
aS'5.2'
p300
aS'5.4'
p301
aS'6.1'
p302
asS'015-2625401'
p303
(lp304
S'1.12'
p305
aS'1.14'
p306
aS'1.16'
p307
aS'1.17'
p308
aS'1.4'
p309
aS'1.8'
p310
aS'3.11'
p311
aS'6.2'
p312
asS'063-1009111'
p313
(lp314
S'1.10'
p315
aS'1.13'
p316
aS'3.1'
p317
aS'3.6'
p318
aS'4.2'
p319
aS'5.5'
p320
asS'059-11070771'
p321
(lp322
S'1.3'
p323
aS'1.4'
p324
aS'2.2'
p325
aS'4.1'
p326
aS'7.2'
p327
asS'067-11978590'
p328
(lp329
S'1.4'
p330
aS'3.2'
p331
aS'3.7'
p332
aS'4.1'
p333
aS'5.10'
p334
aS'5.11'
p335
aS'5.7'
p336
aS'5.9'
p337
as.