(dp0
S'066-15270802'
p1
(dp2
S'1.4'
p3
F6.0
sS'1.5'
p4
F10.0
sS'1.6'
p5
F18.0
sS'1.7'
p6
F1.0
sS'1.1'
p7
F3.0
sS'1.2'
p8
F21.0
sS'1.3'
p9
F25.0
sS'1.8'
p10
F2.0
sS'1.9'
p11
F4.0
sS'6.7'
p12
F76.0
sS'6.6'
p13
F2.0
sS'2.9'
p14
F7.0
sS'2.8'
p15
F26.0
sS'3.2'
p16
F11.0
sS'3.3'
p17
F1.0
sS'6.1'
p18
F29.0
sS'3.1'
p19
F17.0
sS'2.3'
p20
F12.0
sS'2.2'
p21
F22.0
sS'2.1'
p22
F10.0
sS'2.7'
p23
F22.0
sS'2.6'
p24
F4.0
sS'2.5'
p25
F1.0
sS'2.4'
p26
F16.0
sS'4.5'
p27
F7.0
sS'4.4'
p28
F1.0
sS'4.7'
p29
F1.0
sS'4.6'
p30
F7.0
sS'4.1'
p31
F1.0
sS'5.5'
p32
F1.0
sS'4.3'
p33
F1.0
sS'4.2'
p34
F75.0
sS'4.9'
p35
F7.0
sS'4.8'
p36
F4.0
sS'6.5'
p37
F1.0
sS'6.9'
p38
F2.0
sS'6.8'
p39
F2.0
sS'4.11'
p40
F1.0
sS'2.14'
p41
F4.0
sS'2.13'
p42
F3.0
sS'2.12'
p43
F2.0
sS'2.11'
p44
F19.0
sS'2.10'
p45
F11.0
sS'5.1'
p46
F2.0
sS'6.11'
p47
F1.0
sS'6.10'
p48
F2.0
sS'5.2'
p49
F76.0
sS'5.3'
p50
F2.0
sS'4.10'
p51
F1.0
sS'5.4'
p52
F1.0
sS'7.1'
p53
F1.0
sS'7.2'
p54
F1.0
sS'5.6'
p55
F1.0
sS'3.4'
p56
F1.0
sS'6.4'
p57
F1.0
sS'6.3'
p58
F2.0
sS'6.2'
p59
F28.0
ssS'080-5970135'
p60
(dp61
S'1.4'
p62
F3.0
sS'8.6'
p63
F1.0
sS'1.1'
p64
F41.0
sS'1.2'
p65
F24.0
sS'1.3'
p66
F43.0
sS'3.10'
p67
F4.0
sS'3.11'
p68
F2.0
sS'9.14'
p69
F10.0
sS'7.5'
p70
F1.0
sS'9.12'
p71
F11.0
sS'9.13'
p72
F1.0
sS'9.10'
p73
F5.0
sS'9.11'
p74
F8.0
sS'3.6'
p75
F25.0
sS'3.7'
p76
F44.0
sS'3.4'
p77
F1.0
sS'3.5'
p78
F42.0
sS'3.2'
p79
F7.0
sS'3.3'
p80
F1.0
sS'6.1'
p81
F10.0
sS'3.1'
p82
F2.0
sS'2.3'
p83
F25.0
sS'2.2'
p84
F37.0
sS'2.1'
p85
F42.0
sS'2.7'
p86
F6.0
sS'2.6'
p87
F1.0
sS'3.8'
p88
F4.0
sS'3.9'
p89
F1.0
sS'8.1'
p90
F5.0
sS'5.1'
p91
F9.0
sS'5.2'
p92
F4.0
sS'5.3'
p93
F1.0
sS'4.1'
p94
F29.0
sS'5.5'
p95
F6.0
sS'5.6'
p96
F7.0
sS'4.2'
p97
F5.0
sS'5.8'
p98
F22.0
sS'5.9'
p99
F24.0
sS'8.5'
p100
F9.0
sS'8.13'
p101
F1.0
sS'8.10'
p102
F2.0
sS'9.8'
p103
F19.0
sS'2.5'
p104
F31.0
sS'8.15'
p105
F2.0
sS'9.4'
p106
F14.0
sS'9.5'
p107
F1.0
sS'7.4'
p108
F2.0
sS'2.4'
p109
F11.0
sS'9.1'
p110
F6.0
sS'8.14'
p111
F4.0
sS'9.3'
p112
F41.0
sS'9.15'
p113
F11.0
sS'8.3'
p114
F40.0
sS'6.4'
p115
F1.0
sS'9.9'
p116
F4.0
sS'5.10'
p117
F19.0
sS'8.2'
p118
F10.0
sS'8.12'
p119
F2.0
sS'5.4'
p120
F29.0
sS'9.6'
p121
F12.0
sS'8.4'
p122
F27.0
sS'7.1'
p123
F13.0
sS'7.2'
p124
F2.0
sS'9.7'
p125
F8.0
sS'8.7'
p126
F1.0
sS'7.3'
p127
F1.0
sS'5.7'
p128
F14.0
sS'2.9'
p129
F2.0
sS'8.9'
p130
F3.0
sS'2.8'
p131
F5.0
sS'9.2'
p132
F11.0
sS'8.8'
p133
F14.0
sS'6.3'
p134
F7.0
sS'8.11'
p135
F3.0
sS'6.2'
p136
F5.0
ssS'059-9045120'
p137
(dp138
S'1.4'
p139
F10.0
sS'1.5'
p140
F1.0
sS'1.6'
p141
F1.0
sS'1.7'
p142
F8.0
sS'4.15'
p143
F3.0
sS'1.1'
p144
F21.0
sS'1.2'
p145
F4.0
sS'1.3'
p146
F27.0
sS'4.19'
p147
F1.0
sS'4.18'
p148
F2.0
sS'5.20'
p149
F2.0
sS'1.8'
p150
F10.0
sS'1.9'
p151
F6.0
sS'5.2'
p152
F19.0
sS'4.20'
p153
F9.0
sS'3.4'
p154
F1.0
sS'3.5'
p155
F3.0
sS'3.2'
p156
F7.0
sS'3.3'
p157
F1.0
sS'5.21'
p158
F10.0
sS'3.1'
p159
F2.0
sS'2.3'
p160
F10.0
sS'2.2'
p161
F19.0
sS'2.1'
p162
F2.0
sS'5.18'
p163
F2.0
sS'2.6'
p164
F1.0
sS'2.5'
p165
F1.0
sS'2.4'
p166
F14.0
sS'1.16'
p167
F2.0
sS'1.17'
p168
F2.0
sS'1.14'
p169
F8.0
sS'1.15'
p170
F2.0
sS'1.12'
p171
F8.0
sS'1.13'
p172
F18.0
sS'1.10'
p173
F3.0
sS'1.11'
p174
F21.0
sS'5.8'
p175
F17.0
sS'5.9'
p176
F3.0
sS'4.16'
p177
F8.0
sS'4.9'
p178
F13.0
sS'4.8'
p179
F2.0
sS'1.18'
p180
F10.0
sS'1.19'
p181
F5.0
sS'5.6'
p182
F16.0
sS'5.25'
p183
F14.0
sS'5.14'
p184
F2.0
sS'5.7'
p185
F15.0
sS'5.24'
p186
F5.0
sS'4.11'
p187
F20.0
sS'4.5'
p188
F15.0
sS'4.4'
p189
F7.0
sS'5.4'
p190
F2.0
sS'4.7'
p191
F16.0
sS'4.14'
p192
F1.0
sS'5.13'
p193
F12.0
sS'5.10'
p194
F14.0
sS'4.6'
p195
F14.0
sS'5.16'
p196
F3.0
sS'5.17'
p197
F8.0
sS'4.12'
p198
F11.0
sS'5.15'
p199
F2.0
sS'4.10'
p200
F39.0
sS'4.1'
p201
F1.0
sS'4.22'
p202
F9.0
sS'4.23'
p203
F4.0
sS'4.24'
p204
F13.0
sS'5.3'
p205
F28.0
sS'5.5'
p206
F8.0
sS'5.12'
p207
F21.0
sS'4.3'
p208
F7.0
sS'4.2'
p209
F3.0
sS'5.19'
p210
F2.0
sS'5.23'
p211
F10.0
sS'4.17'
p212
F2.0
sS'5.1'
p213
F2.0
sS'4.21'
p214
F5.0
sS'5.11'
p215
F40.0
sS'5.22'
p216
F6.0
sS'4.13'
p217
F1.0
sS'1.23'
p218
F13.0
sS'1.22'
p219
F5.0
sS'1.21'
p220
F10.0
sS'1.20'
p221
F2.0
sS'1.24'
p222
F2.0
ssS'075-16233750'
p223
(dp224
S'4.11'
p225
F6.0
sS'3.19'
p226
F2.0
sS'4.13'
p227
F15.0
sS'4.12'
p228
F9.0
sS'4.15'
p229
F3.0
sS'4.14'
p230
F2.0
sS'4.17'
p231
F2.0
sS'4.16'
p232
F2.0
sS'3.10'
p233
F2.0
sS'3.11'
p234
F3.0
sS'3.12'
p235
F1.0
sS'3.13'
p236
F1.0
sS'3.14'
p237
F3.0
sS'3.15'
p238
F2.0
sS'3.16'
p239
F5.0
sS'3.17'
p240
F7.0
sS'3.6'
p241
F2.0
sS'3.7'
p242
F6.0
sS'3.4'
p243
F8.0
sS'3.5'
p244
F1.0
sS'3.2'
p245
F5.0
sS'3.3'
p246
F9.0
sS'3.1'
p247
F20.0
sS'2.3'
p248
F8.0
sS'2.2'
p249
F5.0
sS'2.1'
p250
F1.0
sS'2.6'
p251
F2.0
sS'2.5'
p252
F1.0
sS'2.4'
p253
F14.0
sS'5.34'
p254
F5.0
sS'5.35'
p255
F7.0
sS'5.36'
p256
F2.0
sS'5.37'
p257
F2.0
sS'5.30'
p258
F1.0
sS'5.31'
p259
F1.0
sS'5.32'
p260
F3.0
sS'5.33'
p261
F2.0
sS'3.18'
p262
F2.0
sS'4.10'
p263
F2.0
sS'5.27'
p264
F3.0
sS'5.26'
p265
F8.0
sS'5.25'
p266
F6.0
sS'5.24'
p267
F3.0
sS'5.23'
p268
F4.0
sS'5.22'
p269
F2.0
sS'5.21'
p270
F2.0
sS'5.20'
p271
F3.0
sS'5.29'
p272
F3.0
sS'5.28'
p273
F3.0
sS'4.19'
p274
F3.0
sS'4.18'
p275
F4.0
sS'5.12'
p276
F10.0
sS'5.13'
p277
F9.0
sS'5.10'
p278
F21.0
sS'5.11'
p279
F6.0
sS'5.16'
p280
F6.0
sS'5.17'
p281
F9.0
sS'5.14'
p282
F2.0
sS'5.15'
p283
F2.0
sS'5.18'
p284
F15.0
sS'5.19'
p285
F2.0
sS'4.21'
p286
F8.0
sS'1.4'
p287
F14.0
sS'1.5'
p288
F18.0
sS'1.6'
p289
F8.0
sS'1.7'
p290
F15.0
sS'1.1'
p291
F1.0
sS'1.2'
p292
F11.0
sS'1.3'
p293
F13.0
sS'1.8'
p294
F17.0
sS'1.9'
p295
F1.0
sS'4.5'
p296
F21.0
sS'4.4'
p297
F2.0
sS'4.7'
p298
F10.0
sS'4.6'
p299
F6.0
sS'4.1'
p300
F11.0
sS'5.5'
p301
F1.0
sS'4.3'
p302
F1.0
sS'4.2'
p303
F4.0
sS'5.8'
p304
F2.0
sS'5.9'
p305
F3.0
sS'4.9'
p306
F2.0
sS'4.8'
p307
F9.0
sS'3.8'
p308
F9.0
sS'3.9'
p309
F15.0
sS'5.1'
p310
F14.0
sS'5.2'
p311
F11.0
sS'5.3'
p312
F14.0
sS'4.20'
p313
F6.0
sS'5.4'
p314
F12.0
sS'4.22'
p315
F3.0
sS'4.23'
p316
F3.0
sS'5.6'
p317
F12.0
sS'5.7'
p318
F5.0
ssS'076-4622322'
p319
(dp320
S'1.4'
p321
F3.0
sS'1.5'
p322
F3.0
sS'1.6'
p323
F2.0
sS'1.7'
p324
F6.0
sS'7.10'
p325
F1.0
sS'1.1'
p326
F30.0
sS'1.2'
p327
F2.0
sS'1.3'
p328
F1.0
sS'3.10'
p329
F5.0
sS'3.11'
p330
F6.0
sS'3.12'
p331
F4.0
sS'3.13'
p332
F9.0
sS'1.8'
p333
F24.0
sS'1.9'
p334
F16.0
sS'7.6'
p335
F1.0
sS'3.6'
p336
F25.0
sS'3.7'
p337
F1.0
sS'3.4'
p338
F15.0
sS'2.8'
p339
F6.0
sS'3.2'
p340
F6.0
sS'3.3'
p341
F9.0
sS'6.1'
p342
F26.0
sS'3.1'
p343
F18.0
sS'2.3'
p344
F19.0
sS'2.2'
p345
F19.0
sS'2.1'
p346
F19.0
sS'7.9'
p347
F3.0
sS'2.7'
p348
F1.0
sS'2.6'
p349
F1.0
sS'2.5'
p350
F14.0
sS'2.4'
p351
F17.0
sS'1.16'
p352
F15.0
sS'1.17'
p353
F9.0
sS'1.14'
p354
F18.0
sS'1.15'
p355
F4.0
sS'1.12'
p356
F9.0
sS'1.13'
p357
F44.0
sS'1.10'
p358
F14.0
sS'1.11'
p359
F8.0
sS'1.18'
p360
F23.0
sS'1.19'
p361
F2.0
sS'7.8'
p362
F1.0
sS'3.8'
p363
F1.0
sS'7.7'
p364
F1.0
sS'7.4'
p365
F6.0
sS'3.9'
p366
F4.0
sS'5.1'
p367
F23.0
sS'6.2'
p368
F24.0
sS'5.4'
p369
F22.0
sS'5.2'
p370
F1.0
sS'5.3'
p371
F13.0
sS'7.5'
p372
F12.0
sS'4.1'
p373
F5.0
sS'5.5'
p374
F14.0
sS'7.1'
p375
F25.0
sS'7.2'
p376
F6.0
sS'5.6'
p377
F1.0
sS'7.3'
p378
F12.0
sS'5.7'
p379
F1.0
sS'6.3'
p380
F1.0
sS'3.5'
p381
F28.0
sS'1.23'
p382
F2.0
sS'1.22'
p383
F6.0
sS'1.21'
p384
F4.0
sS'1.20'
p385
F3.0
sS'1.25'
p386
F2.0
sS'1.24'
p387
F3.0
ssS'023-2964247'
p388
(dp389
S'1.4'
p390
F22.0
sS'1.5'
p391
F23.0
sS'1.6'
p392
F1.0
sS'1.7'
p393
F1.0
sS'4.15'
p394
F23.0
sS'1.1'
p395
F9.0
sS'1.2'
p396
F16.0
sS'1.3'
p397
F20.0
sS'3.10'
p398
F17.0
sS'3.11'
p399
F2.0
sS'3.12'
p400
F5.0
sS'3.13'
p401
F11.0
sS'1.8'
p402
F2.0
sS'3.15'
p403
F21.0
sS'3.16'
p404
F23.0
sS'3.17'
p405
F24.0
sS'3.6'
p406
F6.0
sS'3.7'
p407
F23.0
sS'2.9'
p408
F16.0
sS'2.8'
p409
F11.0
sS'3.2'
p410
F19.0
sS'3.3'
p411
F6.0
sS'6.1'
p412
F16.0
sS'3.1'
p413
F14.0
sS'2.3'
p414
F14.0
sS'2.2'
p415
F22.0
sS'2.1'
p416
F5.0
sS'2.7'
p417
F5.0
sS'2.6'
p418
F1.0
sS'2.5'
p419
F15.0
sS'2.4'
p420
F19.0
sS'4.5'
p421
F6.0
sS'4.4'
p422
F3.0
sS'4.7'
p423
F15.0
sS'4.6'
p424
F23.0
sS'4.1'
p425
F25.0
sS'4.17'
p426
F2.0
sS'4.3'
p427
F1.0
sS'4.2'
p428
F4.0
sS'3.19'
p429
F3.0
sS'4.24'
p430
F7.0
sS'4.16'
p431
F24.0
sS'4.9'
p432
F17.0
sS'4.8'
p433
F20.0
sS'4.19'
p434
F1.0
sS'6.5'
p435
F16.0
sS'3.8'
p436
F15.0
sS'4.18'
p437
F3.0
sS'6.8'
p438
F1.0
sS'6.4'
p439
F12.0
sS'4.11'
p440
F6.0
sS'2.14'
p441
F3.0
sS'2.13'
p442
F2.0
sS'2.12'
p443
F24.0
sS'2.11'
p444
F23.0
sS'2.10'
p445
F21.0
sS'5.1'
p446
F8.0
sS'7.2'
p447
F17.0
sS'3.14'
p448
F16.0
sS'5.4'
p449
F13.0
sS'7.4'
p450
F1.0
sS'5.2'
p451
F6.0
sS'4.14'
p452
F21.0
sS'5.3'
p453
F10.0
sS'4.20'
p454
F1.0
sS'4.12'
p455
F11.0
sS'4.10'
p456
F2.0
sS'4.21'
p457
F13.0
sS'4.22'
p458
F5.0
sS'4.23'
p459
F4.0
sS'3.9'
p460
F20.0
sS'4.25'
p461
F1.0
sS'7.3'
p462
F3.0
sS'3.18'
p463
F2.0
sS'7.1'
p464
F2.0
sS'6.7'
p465
F6.0
sS'5.6'
p466
F11.0
sS'6.6'
p467
F19.0
sS'5.5'
p468
F36.0
sS'5.7'
p469
F1.0
sS'3.4'
p470
F1.0
sS'3.5'
p471
F2.0
sS'4.13'
p472
F16.0
sS'6.3'
p473
F18.0
sS'6.2'
p474
F5.0
ssS'078-1321398'
p475
(dp476
S'6.7'
p477
F1.0
sS'6.6'
p478
F24.0
sS'6.5'
p479
F14.0
sS'6.4'
p480
F8.0
sS'6.3'
p481
F5.0
sS'6.2'
p482
F17.0
sS'6.1'
p483
F3.0
sS'6.9'
p484
F5.0
sS'6.8'
p485
F4.0
sS'1.10'
p486
F3.0
sS'1.11'
p487
F6.0
sS'2.14'
p488
F7.0
sS'2.13'
p489
F4.0
sS'2.12'
p490
F2.0
sS'2.11'
p491
F6.0
sS'2.10'
p492
F7.0
sS'3.10'
p493
F2.0
sS'3.11'
p494
F7.0
sS'3.12'
p495
F7.0
sS'3.13'
p496
F6.0
sS'3.14'
p497
F2.0
sS'3.15'
p498
F4.0
sS'3.16'
p499
F7.0
sS'3.17'
p500
F1.0
sS'3.6'
p501
F29.0
sS'3.7'
p502
F9.0
sS'2.9'
p503
F7.0
sS'2.8'
p504
F2.0
sS'3.2'
p505
F1.0
sS'3.3'
p506
F8.0
sS'3.1'
p507
F13.0
sS'2.3'
p508
F1.0
sS'2.2'
p509
F14.0
sS'2.1'
p510
F7.0
sS'2.7'
p511
F2.0
sS'2.6'
p512
F6.0
sS'2.5'
p513
F9.0
sS'2.4'
p514
F29.0
sS'5.23'
p515
F7.0
sS'5.22'
p516
F4.0
sS'5.21'
p517
F2.0
sS'5.20'
p518
F6.0
sS'6.13'
p519
F11.0
sS'6.12'
p520
F1.0
sS'6.11'
p521
F11.0
sS'6.10'
p522
F8.0
sS'6.17'
p523
F1.0
sS'6.16'
p524
F19.0
sS'6.15'
p525
F15.0
sS'6.14'
p526
F11.0
sS'5.12'
p527
F3.0
sS'5.13'
p528
F29.0
sS'5.10'
p529
F3.0
sS'5.11'
p530
F3.0
sS'5.16'
p531
F2.0
sS'5.17'
p532
F2.0
sS'5.14'
p533
F9.0
sS'5.15'
p534
F6.0
sS'5.18'
p535
F7.0
sS'5.19'
p536
F7.0
sS'3.4'
p537
F15.0
sS'3.5'
p538
F2.0
sS'1.4'
p539
F1.0
sS'1.5'
p540
F1.0
sS'1.6'
p541
F6.0
sS'1.7'
p542
F6.0
sS'1.1'
p543
F28.0
sS'1.2'
p544
F8.0
sS'1.3'
p545
F5.0
sS'1.8'
p546
F5.0
sS'1.9'
p547
F1.0
sS'4.5'
p548
F1.0
sS'4.4'
p549
F1.0
sS'5.2'
p550
F17.0
sS'5.3'
p551
F5.0
sS'4.1'
p552
F14.0
sS'5.5'
p553
F14.0
sS'5.6'
p554
F2.0
sS'5.7'
p555
F4.0
sS'5.8'
p556
F4.0
sS'5.9'
p557
F4.0
sS'3.8'
p558
F6.0
sS'3.9'
p559
F2.0
sS'5.1'
p560
F3.0
sS'5.4'
p561
F8.0
sS'4.3'
p562
F8.0
sS'4.2'
p563
F6.0
ssS'078-3797219'
p564
(dp565
S'11.1'
p566
F11.0
sS'7.2'
p567
F3.0
sS'7.3'
p568
F8.0
sS'6.5'
p569
F1.0
sS'7.1'
p570
F4.0
sS'6.3'
p571
F16.0
sS'7.7'
p572
F13.0
sS'6.1'
p573
F10.0
sS'7.5'
p574
F3.0
sS'7.8'
p575
F11.0
sS'7.9'
p576
F10.0
sS'8.10'
p577
F1.0
sS'1.16'
p578
F4.0
sS'1.17'
p579
F2.0
sS'1.14'
p580
F2.0
sS'1.15'
p581
F4.0
sS'1.12'
p582
F3.0
sS'1.13'
p583
F1.0
sS'1.10'
p584
F1.0
sS'1.11'
p585
F3.0
sS'1.18'
p586
F1.0
sS'1.19'
p587
F41.0
sS'11.10'
p588
F13.0
sS'11.11'
p589
F2.0
sS'6.7'
p590
F1.0
sS'6.6'
p591
F2.0
sS'6.4'
p592
F6.0
sS'7.6'
p593
F13.0
sS'6.2'
p594
F3.0
sS'4.11'
p595
F6.0
sS'4.10'
p596
F1.0
sS'4.12'
p597
F1.0
sS'7.4'
p598
F1.0
sS'3.6'
p599
F5.0
sS'3.7'
p600
F2.0
sS'3.4'
p601
F38.0
sS'3.5'
p602
F1.0
sS'3.2'
p603
F4.0
sS'3.3'
p604
F12.0
sS'3.1'
p605
F10.0
sS'2.3'
p606
F2.0
sS'2.2'
p607
F10.0
sS'2.1'
p608
F3.0
sS'3.8'
p609
F4.0
sS'11.8'
p610
F13.0
sS'10.1'
p611
F13.0
sS'10.3'
p612
F12.0
sS'10.2'
p613
F11.0
sS'10.5'
p614
F1.0
sS'10.4'
p615
F1.0
sS'11.14'
p616
F6.0
sS'11.15'
p617
F1.0
sS'11.12'
p618
F2.0
sS'11.13'
p619
F1.0
sS'9.10'
p620
F3.0
sS'9.11'
p621
F2.0
sS'8.1'
p622
F5.0
sS'8.3'
p623
F9.0
sS'8.2'
p624
F4.0
sS'8.5'
p625
F4.0
sS'8.4'
p626
F2.0
sS'8.7'
p627
F12.0
sS'8.6'
p628
F12.0
sS'8.9'
p629
F2.0
sS'8.8'
p630
F1.0
sS'9.8'
p631
F13.0
sS'9.9'
p632
F2.0
sS'9.4'
p633
F9.0
sS'9.5'
p634
F2.0
sS'9.6'
p635
F4.0
sS'9.7'
p636
F13.0
sS'9.1'
p637
F12.0
sS'9.2'
p638
F5.0
sS'9.3'
p639
F4.0
sS'1.4'
p640
F34.0
sS'1.5'
p641
F2.0
sS'1.6'
p642
F1.0
sS'1.7'
p643
F1.0
sS'1.1'
p644
F2.0
sS'1.2'
p645
F9.0
sS'1.3'
p646
F9.0
sS'1.8'
p647
F2.0
sS'1.9'
p648
F2.0
sS'4.5'
p649
F6.0
sS'4.4'
p650
F14.0
sS'5.2'
p651
F25.0
sS'4.6'
p652
F5.0
sS'5.4'
p653
F1.0
sS'11.9'
p654
F12.0
sS'4.3'
p655
F4.0
sS'4.2'
p656
F12.0
sS'11.4'
p657
F16.0
sS'11.5'
p658
F36.0
sS'11.6'
p659
F2.0
sS'11.7'
p660
F1.0
sS'4.9'
p661
F3.0
sS'4.8'
p662
F10.0
sS'11.2'
p663
F21.0
sS'11.3'
p664
F14.0
sS'5.1'
p665
F39.0
sS'4.7'
p666
F3.0
sS'5.3'
p667
F4.0
sS'4.1'
p668
F13.0
sS'1.21'
p669
F10.0
sS'1.20'
p670
F25.0
ssS'074-0998972'
p671
(dp672
S'1.4'
p673
F18.0
sS'1.5'
p674
F19.0
sS'1.6'
p675
F17.0
sS'1.7'
p676
F14.0
sS'1.1'
p677
F16.0
sS'1.2'
p678
F17.0
sS'1.3'
p679
F11.0
sS'3.10'
p680
F2.0
sS'3.11'
p681
F17.0
sS'3.12'
p682
F17.0
sS'1.8'
p683
F13.0
sS'1.9'
p684
F1.0
sS'3.6'
p685
F11.0
sS'3.7'
p686
F10.0
sS'2.9'
p687
F2.0
sS'2.8'
p688
F1.0
sS'3.2'
p689
F13.0
sS'3.3'
p690
F20.0
sS'6.1'
p691
F22.0
sS'3.1'
p692
F19.0
sS'2.3'
p693
F12.0
sS'2.2'
p694
F17.0
sS'2.1'
p695
F46.0
sS'2.7'
p696
F3.0
sS'2.6'
p697
F1.0
sS'2.5'
p698
F2.0
sS'2.4'
p699
F12.0
sS'5.1'
p700
F11.0
sS'5.2'
p701
F15.0
sS'5.3'
p702
F17.0
sS'4.1'
p703
F9.0
sS'5.5'
p704
F10.0
sS'1.10'
p705
F2.0
sS'5.7'
p706
F2.0
sS'6.5'
p707
F1.0
sS'3.8'
p708
F17.0
sS'2.19'
p709
F3.0
sS'2.18'
p710
F2.0
sS'2.17'
p711
F14.0
sS'2.16'
p712
F15.0
sS'2.15'
p713
F18.0
sS'2.14'
p714
F20.0
sS'2.13'
p715
F19.0
sS'2.12'
p716
F12.0
sS'2.11'
p717
F18.0
sS'2.10'
p718
F17.0
sS'6.4'
p719
F36.0
sS'5.4'
p720
F7.0
sS'3.9'
p721
F17.0
sS'5.6'
p722
F5.0
sS'3.4'
p723
F29.0
sS'3.5'
p724
F21.0
sS'6.3'
p725
F25.0
sS'6.2'
p726
F7.0
ssS'058-13714734'
p727
(dp728
S'6.7'
p729
F3.0
sS'6.6'
p730
F3.0
sS'6.5'
p731
F2.0
sS'6.4'
p732
F21.0
sS'6.3'
p733
F21.0
sS'6.2'
p734
F4.0
sS'6.1'
p735
F10.0
sS'6.9'
p736
F4.0
sS'6.8'
p737
F5.0
sS'1.10'
p738
F5.0
sS'1.11'
p739
F9.0
sS'2.11'
p740
F8.0
sS'2.10'
p741
F24.0
sS'3.10'
p742
F3.0
sS'3.11'
p743
F42.0
sS'3.12'
p744
F24.0
sS'3.13'
p745
F8.0
sS'3.14'
p746
F1.0
sS'3.15'
p747
F4.0
sS'3.16'
p748
F4.0
sS'3.6'
p749
F13.0
sS'3.7'
p750
F10.0
sS'2.9'
p751
F42.0
sS'2.8'
p752
F3.0
sS'3.2'
p753
F20.0
sS'3.3'
p754
F16.0
sS'3.1'
p755
F2.0
sS'2.3'
p756
F15.0
sS'2.2'
p757
F19.0
sS'2.1'
p758
F1.0
sS'2.7'
p759
F3.0
sS'2.6'
p760
F1.0
sS'2.5'
p761
F1.0
sS'2.4'
p762
F36.0
sS'5.25'
p763
F9.0
sS'5.24'
p764
F5.0
sS'5.23'
p765
F6.0
sS'5.22'
p766
F3.0
sS'5.21'
p767
F10.0
sS'5.20'
p768
F6.0
sS'6.19'
p769
F2.0
sS'6.18'
p770
F1.0
sS'6.13'
p771
F21.0
sS'6.12'
p772
F13.0
sS'6.11'
p773
F8.0
sS'6.10'
p774
F8.0
sS'6.17'
p775
F20.0
sS'6.16'
p776
F11.0
sS'6.15'
p777
F11.0
sS'6.14'
p778
F7.0
sS'5.12'
p779
F2.0
sS'5.13'
p780
F3.0
sS'5.10'
p781
F15.0
sS'5.11'
p782
F1.0
sS'5.16'
p783
F24.0
sS'5.17'
p784
F8.0
sS'5.14'
p785
F3.0
sS'5.15'
p786
F42.0
sS'5.18'
p787
F4.0
sS'5.19'
p788
F7.0
sS'3.4'
p789
F37.0
sS'3.5'
p790
F1.0
sS'1.4'
p791
F23.0
sS'1.5'
p792
F7.0
sS'1.6'
p793
F1.0
sS'1.7'
p794
F1.0
sS'1.1'
p795
F2.0
sS'1.2'
p796
F2.0
sS'1.3'
p797
F41.0
sS'1.8'
p798
F3.0
sS'1.9'
p799
F6.0
sS'4.5'
p800
F3.0
sS'4.4'
p801
F1.0
sS'4.7'
p802
F4.0
sS'4.6'
p803
F5.0
sS'4.1'
p804
F14.0
sS'5.5'
p805
F9.0
sS'5.6'
p806
F15.0
sS'5.7'
p807
F22.0
sS'5.8'
p808
F18.0
sS'5.9'
p809
F31.0
sS'3.8'
p810
F2.0
sS'3.9'
p811
F3.0
sS'5.1'
p812
F4.0
sS'5.2'
p813
F15.0
sS'5.3'
p814
F26.0
sS'5.4'
p815
F2.0
sS'4.3'
p816
F13.0
sS'4.2'
p817
F11.0
sS'6.22'
p818
F5.0
sS'6.23'
p819
F9.0
sS'6.20'
p820
F3.0
sS'6.21'
p821
F6.0
ssS'060-0021651'
p822
(dp823
S'7.10'
p824
F2.0
sS'7.2'
p825
F1.0
sS'7.3'
p826
F17.0
sS'6.4'
p827
F1.0
sS'6.3'
p828
F8.0
sS'7.7'
p829
F12.0
sS'6.1'
p830
F7.0
sS'7.5'
p831
F18.0
sS'7.8'
p832
F13.0
sS'7.9'
p833
F8.0
sS'8.11'
p834
F13.0
sS'8.10'
p835
F12.0
sS'8.13'
p836
F2.0
sS'8.12'
p837
F8.0
sS'7.1'
p838
F16.0
sS'7.6'
p839
F20.0
sS'6.2'
p840
F21.0
sS'4.11'
p841
F12.0
sS'4.10'
p842
F20.0
sS'4.13'
p843
F8.0
sS'4.12'
p844
F13.0
sS'4.15'
p845
F4.0
sS'7.4'
p846
F13.0
sS'4.17'
p847
F5.0
sS'4.16'
p848
F2.0
sS'4.19'
p849
F6.0
sS'4.18'
p850
F7.0
sS'3.6'
p851
F17.0
sS'3.7'
p852
F1.0
sS'3.4'
p853
F13.0
sS'3.5'
p854
F8.0
sS'3.2'
p855
F6.0
sS'3.3'
p856
F12.0
sS'3.1'
p857
F2.0
sS'2.3'
p858
F11.0
sS'2.2'
p859
F8.0
sS'2.1'
p860
F14.0
sS'2.7'
p861
F13.0
sS'2.6'
p862
F12.0
sS'2.5'
p863
F2.0
sS'2.4'
p864
F1.0
sS'4.14'
p865
F1.0
sS'8.1'
p866
F19.0
sS'8.3'
p867
F7.0
sS'8.2'
p868
F18.0
sS'8.5'
p869
F15.0
sS'8.4'
p870
F1.0
sS'8.7'
p871
F13.0
sS'8.6'
p872
F17.0
sS'8.9'
p873
F20.0
sS'8.8'
p874
F18.0
sS'5.12'
p875
F18.0
sS'5.13'
p876
F20.0
sS'5.10'
p877
F17.0
sS'5.11'
p878
F13.0
sS'5.16'
p879
F8.0
sS'5.17'
p880
F2.0
sS'5.14'
p881
F12.0
sS'5.15'
p882
F13.0
sS'2.8'
p883
F8.0
sS'1.4'
p884
F19.0
sS'1.5'
p885
F11.0
sS'1.6'
p886
F12.0
sS'1.7'
p887
F7.0
sS'1.1'
p888
F16.0
sS'1.2'
p889
F12.0
sS'1.3'
p890
F17.0
sS'1.8'
p891
F1.0
sS'4.5'
p892
F1.0
sS'4.4'
p893
F22.0
sS'4.7'
p894
F17.0
sS'4.6'
p895
F1.0
sS'4.1'
p896
F2.0
sS'5.5'
p897
F13.0
sS'4.3'
p898
F15.0
sS'4.2'
p899
F12.0
sS'5.8'
p900
F3.0
sS'5.9'
p901
F3.0
sS'4.9'
p902
F18.0
sS'4.8'
p903
F13.0
sS'5.1'
p904
F18.0
sS'5.2'
p905
F17.0
sS'5.3'
p906
F12.0
sS'4.20'
p907
F4.0
sS'5.4'
p908
F13.0
sS'5.6'
p909
F9.0
sS'5.7'
p910
F1.0
ssS'079-14194071'
p911
(dp912
S'1.4'
p913
F9.0
sS'1.5'
p914
F9.0
sS'1.6'
p915
F2.0
sS'1.7'
p916
F2.0
sS'1.1'
p917
F2.0
sS'1.2'
p918
F15.0
sS'1.3'
p919
F14.0
sS'3.10'
p920
F10.0
sS'3.11'
p921
F3.0
sS'3.12'
p922
F3.0
sS'3.13'
p923
F2.0
sS'1.8'
p924
F1.0
sS'3.15'
p925
F20.0
sS'3.16'
p926
F5.0
sS'3.17'
p927
F6.0
sS'3.6'
p928
F3.0
sS'3.7'
p929
F16.0
sS'2.9'
p930
F3.0
sS'2.8'
p931
F10.0
sS'3.2'
p932
F1.0
sS'3.3'
p933
F2.0
sS'3.1'
p934
F1.0
sS'2.3'
p935
F1.0
sS'2.2'
p936
F1.0
sS'2.1'
p937
F1.0
sS'2.7'
p938
F10.0
sS'2.6'
p939
F15.0
sS'2.5'
p940
F16.0
sS'2.4'
p941
F3.0
sS'4.5'
p942
F1.0
sS'4.4'
p943
F1.0
sS'5.2'
p944
F9.0
sS'5.3'
p945
F17.0
sS'4.1'
p946
F1.0
sS'5.5'
p947
F29.0
sS'4.3'
p948
F29.0
sS'4.2'
p949
F29.0
sS'3.19'
p950
F12.0
sS'5.9'
p951
F2.0
sS'3.21'
p952
F12.0
sS'3.20'
p953
F2.0
sS'3.22'
p954
F11.0
sS'3.8'
p955
F15.0
sS'2.19'
p956
F11.0
sS'2.18'
p957
F1.0
sS'2.17'
p958
F11.0
sS'2.16'
p959
F8.0
sS'2.15'
p960
F5.0
sS'2.14'
p961
F4.0
sS'2.13'
p962
F19.0
sS'2.12'
p963
F20.0
sS'2.11'
p964
F2.0
sS'2.10'
p965
F3.0
sS'5.1'
p966
F1.0
sS'3.14'
p967
F21.0
sS'5.12'
p968
F2.0
sS'5.13'
p969
F2.0
sS'5.10'
p970
F30.0
sS'5.11'
p971
F30.0
sS'5.4'
p972
F18.0
sS'3.9'
p973
F10.0
sS'3.18'
p974
F9.0
sS'5.6'
p975
F16.0
sS'5.7'
p976
F22.0
sS'3.4'
p977
F2.0
sS'5.8'
p978
F1.0
sS'3.5'
p979
F2.0
sS'2.20'
p980
F10.0
ssS'068-16207900'
p981
(dp982
S'6.6'
p983
F6.0
sS'6.5'
p984
F1.0
sS'6.4'
p985
F1.0
sS'6.3'
p986
F1.0
sS'6.2'
p987
F6.0
sS'6.1'
p988
F8.0
sS'4.33'
p989
F1.0
sS'4.32'
p990
F2.0
sS'4.31'
p991
F1.0
sS'4.30'
p992
F1.0
sS'4.35'
p993
F1.0
sS'4.34'
p994
F1.0
sS'1.14'
p995
F2.0
sS'1.15'
p996
F10.0
sS'1.12'
p997
F7.0
sS'1.13'
p998
F2.0
sS'1.10'
p999
F4.0
sS'1.11'
p1000
F10.0
sS'2.19'
p1001
F3.0
sS'2.18'
p1002
F3.0
sS'2.17'
p1003
F3.0
sS'2.16'
p1004
F3.0
sS'2.15'
p1005
F1.0
sS'2.14'
p1006
F3.0
sS'2.13'
p1007
F13.0
sS'2.12'
p1008
F10.0
sS'2.11'
p1009
F12.0
sS'2.10'
p1010
F6.0
sS'2.22'
p1011
F1.0
sS'2.23'
p1012
F1.0
sS'2.20'
p1013
F1.0
sS'2.21'
p1014
F5.0
sS'4.11'
p1015
F16.0
sS'4.10'
p1016
F5.0
sS'4.13'
p1017
F1.0
sS'4.12'
p1018
F14.0
sS'4.15'
p1019
F7.0
sS'4.14'
p1020
F17.0
sS'4.17'
p1021
F1.0
sS'4.16'
p1022
F1.0
sS'4.19'
p1023
F1.0
sS'4.18'
p1024
F2.0
sS'5.20'
p1025
F11.0
sS'3.6'
p1026
F12.0
sS'3.7'
p1027
F7.0
sS'2.9'
p1028
F14.0
sS'2.8'
p1029
F16.0
sS'3.2'
p1030
F11.0
sS'3.3'
p1031
F10.0
sS'3.1'
p1032
F14.0
sS'2.3'
p1033
F5.0
sS'2.2'
p1034
F9.0
sS'2.1'
p1035
F8.0
sS'2.7'
p1036
F13.0
sS'2.6'
p1037
F11.0
sS'2.5'
p1038
F14.0
sS'2.4'
p1039
F16.0
sS'5.26'
p1040
F1.0
sS'5.25'
p1041
F3.0
sS'5.24'
p1042
F1.0
sS'5.23'
p1043
F1.0
sS'5.22'
p1044
F5.0
sS'5.21'
p1045
F8.0
sS'4.21'
p1046
F5.0
sS'5.12'
p1047
F9.0
sS'5.13'
p1048
F10.0
sS'5.10'
p1049
F5.0
sS'5.11'
p1050
F10.0
sS'5.16'
p1051
F8.0
sS'5.17'
p1052
F11.0
sS'5.14'
p1053
F10.0
sS'5.15'
p1054
F12.0
sS'5.18'
p1055
F9.0
sS'5.19'
p1056
F12.0
sS'3.4'
p1057
F12.0
sS'3.5'
p1058
F11.0
sS'1.4'
p1059
F13.0
sS'1.5'
p1060
F16.0
sS'1.6'
p1061
F6.0
sS'1.7'
p1062
F1.0
sS'1.1'
p1063
F8.0
sS'1.2'
p1064
F4.0
sS'1.3'
p1065
F15.0
sS'1.8'
p1066
F2.0
sS'1.9'
p1067
F4.0
sS'4.5'
p1068
F13.0
sS'4.4'
p1069
F13.0
sS'5.2'
p1070
F2.0
sS'5.3'
p1071
F1.0
sS'5.4'
p1072
F6.0
sS'5.5'
p1073
F1.0
sS'5.6'
p1074
F12.0
sS'4.2'
p1075
F5.0
sS'5.8'
p1076
F14.0
sS'5.9'
p1077
F14.0
sS'4.9'
p1078
F9.0
sS'4.8'
p1079
F8.0
sS'5.1'
p1080
F8.0
sS'4.7'
p1081
F1.0
sS'4.28'
p1082
F1.0
sS'4.29'
p1083
F1.0
sS'4.6'
p1084
F4.0
sS'4.20'
p1085
F3.0
sS'4.1'
p1086
F1.0
sS'4.22'
p1087
F5.0
sS'4.23'
p1088
F11.0
sS'4.24'
p1089
F8.0
sS'4.25'
p1090
F3.0
sS'4.26'
p1091
F3.0
sS'4.27'
p1092
F11.0
sS'4.3'
p1093
F13.0
sS'5.7'
p1094
F3.0
ssS'026-4380722'
p1095
(dp1096
S'1.4'
p1097
F18.0
sS'1.5'
p1098
F15.0
sS'1.6'
p1099
F13.0
sS'1.7'
p1100
F28.0
sS'1.1'
p1101
F12.0
sS'1.2'
p1102
F20.0
sS'1.3'
p1103
F18.0
sS'3.10'
p1104
F14.0
sS'3.11'
p1105
F29.0
sS'3.12'
p1106
F4.0
sS'3.13'
p1107
F2.0
sS'1.8'
p1108
F3.0
sS'1.9'
p1109
F1.0
sS'3.16'
p1110
F6.0
sS'3.17'
p1111
F8.0
sS'3.6'
p1112
F21.0
sS'3.7'
p1113
F19.0
sS'2.9'
p1114
F29.0
sS'2.8'
p1115
F14.0
sS'3.2'
p1116
F3.0
sS'3.3'
p1117
F4.0
sS'3.1'
p1118
F8.0
sS'2.3'
p1119
F13.0
sS'2.2'
p1120
F11.0
sS'2.1'
p1121
F3.0
sS'2.7'
p1122
F16.0
sS'2.6'
p1123
F19.0
sS'2.5'
p1124
F19.0
sS'2.4'
p1125
F21.0
sS'1.16'
p1126
F3.0
sS'4.4'
p1127
F5.0
sS'1.14'
p1128
F3.0
sS'1.15'
p1129
F7.0
sS'1.12'
p1130
F5.0
sS'1.13'
p1131
F7.0
sS'1.10'
p1132
F1.0
sS'1.11'
p1133
F1.0
sS'3.19'
p1134
F8.0
sS'5.9'
p1135
F16.0
sS'5.6'
p1136
F1.0
sS'3.20'
p1137
F4.0
sS'3.8'
p1138
F19.0
sS'5.7'
p1139
F3.0
sS'2.18'
p1140
F4.0
sS'2.17'
p1141
F8.0
sS'2.16'
p1142
F4.0
sS'2.15'
p1143
F8.0
sS'2.14'
p1144
F6.0
sS'2.13'
p1145
F2.0
sS'2.12'
p1146
F2.0
sS'2.11'
p1147
F2.0
sS'2.10'
p1148
F4.0
sS'4.5'
p1149
F7.0
sS'5.1'
p1150
F11.0
sS'3.14'
p1151
F2.0
sS'5.11'
p1152
F6.0
sS'5.4'
p1153
F9.0
sS'5.2'
p1154
F16.0
sS'3.15'
p1155
F2.0
sS'5.12'
p1156
F8.0
sS'5.10'
p1157
F14.0
sS'5.3'
p1158
F17.0
sS'4.1'
p1159
F19.0
sS'3.9'
p1160
F16.0
sS'3.18'
p1161
F4.0
sS'4.3'
p1162
F14.0
sS'5.5'
p1163
F7.0
sS'4.2'
p1164
F16.0
sS'3.4'
p1165
F12.0
sS'5.8'
p1166
F19.0
sS'3.5'
p1167
F13.0
ssS'074-6324762'
p1168
(dp1169
S'1.4'
p1170
F8.0
sS'1.5'
p1171
F6.0
sS'1.6'
p1172
F15.0
sS'1.7'
p1173
F8.0
sS'1.1'
p1174
F3.0
sS'1.2'
p1175
F12.0
sS'1.3'
p1176
F14.0
sS'3.10'
p1177
F33.0
sS'3.11'
p1178
F4.0
sS'3.12'
p1179
F11.0
sS'3.13'
p1180
F20.0
sS'1.8'
p1181
F7.0
sS'1.9'
p1182
F19.0
sS'3.16'
p1183
F3.0
sS'3.17'
p1184
F3.0
sS'3.6'
p1185
F14.0
sS'3.7'
p1186
F4.0
sS'2.9'
p1187
F5.0
sS'2.8'
p1188
F3.0
sS'3.2'
p1189
F12.0
sS'3.3'
p1190
F1.0
sS'3.1'
p1191
F4.0
sS'2.3'
p1192
F19.0
sS'2.2'
p1193
F1.0
sS'2.1'
p1194
F4.0
sS'2.7'
p1195
F1.0
sS'2.6'
p1196
F33.0
sS'2.5'
p1197
F22.0
sS'2.4'
p1198
F18.0
sS'4.5'
p1199
F16.0
sS'4.4'
p1200
F36.0
sS'4.7'
p1201
F13.0
sS'4.6'
p1202
F9.0
sS'1.12'
p1203
F1.0
sS'1.13'
p1204
F1.0
sS'1.10'
p1205
F6.0
sS'1.11'
p1206
F11.0
sS'3.19'
p1207
F1.0
sS'4.9'
p1208
F8.0
sS'4.8'
p1209
F15.0
sS'5.6'
p1210
F6.0
sS'3.8'
p1211
F11.0
sS'5.7'
p1212
F9.0
sS'4.11'
p1213
F1.0
sS'3.9'
p1214
F29.0
sS'2.10'
p1215
F4.0
sS'5.1'
p1216
F36.0
sS'3.14'
p1217
F1.0
sS'5.4'
p1218
F7.0
sS'5.2'
p1219
F7.0
sS'3.15'
p1220
F2.0
sS'4.14'
p1221
F4.0
sS'5.3'
p1222
F1.0
sS'4.12'
p1223
F3.0
sS'4.10'
p1224
F22.0
sS'4.1'
p1225
F2.0
sS'3.18'
p1226
F4.0
sS'4.3'
p1227
F9.0
sS'5.5'
p1228
F10.0
sS'4.2'
p1229
F5.0
sS'3.4'
p1230
F4.0
sS'5.8'
p1231
F4.0
sS'3.5'
p1232
F8.0
sS'4.13'
p1233
F5.0
ssS'078-8112187'
p1234
(dp1235
S'1.4'
p1236
F1.0
sS'1.5'
p1237
F1.0
sS'1.6'
p1238
F3.0
sS'1.7'
p1239
F5.0
sS'7.10'
p1240
F5.0
sS'1.1'
p1241
F14.0
sS'1.2'
p1242
F2.0
sS'1.3'
p1243
F1.0
sS'7.5'
p1244
F7.0
sS'1.8'
p1245
F4.0
sS'1.9'
p1246
F3.0
sS'6.7'
p1247
F1.0
sS'6.6'
p1248
F13.0
sS'2.9'
p1249
F4.0
sS'2.8'
p1250
F2.0
sS'3.2'
p1251
F7.0
sS'3.3'
p1252
F1.0
sS'6.1'
p1253
F31.0
sS'3.1'
p1254
F2.0
sS'2.3'
p1255
F1.0
sS'2.2'
p1256
F12.0
sS'2.1'
p1257
F1.0
sS'7.9'
p1258
F4.0
sS'2.7'
p1259
F2.0
sS'2.6'
p1260
F2.0
sS'2.5'
p1261
F3.0
sS'2.4'
p1262
F15.0
sS'5.6'
p1263
F1.0
sS'4.4'
p1264
F2.0
sS'5.2'
p1265
F6.0
sS'5.3'
p1266
F2.0
sS'4.1'
p1267
F5.0
sS'5.5'
p1268
F2.0
sS'1.10'
p1269
F1.0
sS'4.2'
p1270
F2.0
sS'5.8'
p1271
F12.0
sS'5.9'
p1272
F8.0
sS'7.13'
p1273
F1.0
sS'7.8'
p1274
F2.0
sS'6.9'
p1275
F4.0
sS'7.7'
p1276
F8.0
sS'2.18'
p1277
F13.0
sS'2.17'
p1278
F8.0
sS'2.16'
p1279
F12.0
sS'2.15'
p1280
F8.0
sS'2.14'
p1281
F1.0
sS'2.13'
p1282
F2.0
sS'2.12'
p1283
F4.0
sS'2.11'
p1284
F5.0
sS'2.10'
p1285
F6.0
sS'6.8'
p1286
F1.0
sS'7.16'
p1287
F15.0
sS'7.17'
p1288
F19.0
sS'5.1'
p1289
F30.0
sS'7.18'
p1290
F1.0
sS'6.10'
p1291
F6.0
sS'7.4'
p1292
F1.0
sS'7.11'
p1293
F8.0
sS'5.10'
p1294
F13.0
sS'5.4'
p1295
F8.0
sS'7.1'
p1296
F31.0
sS'7.2'
p1297
F4.0
sS'7.14'
p1298
F11.0
sS'4.3'
p1299
F8.0
sS'7.3'
p1300
F19.0
sS'7.12'
p1301
F11.0
sS'5.7'
p1302
F8.0
sS'6.5'
p1303
F1.0
sS'7.15'
p1304
F11.0
sS'6.4'
p1305
F6.0
sS'6.3'
p1306
F5.0
sS'7.6'
p1307
F2.0
sS'6.2'
p1308
F3.0
ssS'075-15948761'
p1309
(dp1310
S'6.7'
p1311
F1.0
sS'6.6'
p1312
F7.0
sS'6.5'
p1313
F23.0
sS'6.4'
p1314
F8.0
sS'6.3'
p1315
F32.0
sS'6.2'
p1316
F14.0
sS'6.1'
p1317
F10.0
sS'6.9'
p1318
F2.0
sS'6.8'
p1319
F1.0
sS'2.11'
p1320
F10.0
sS'2.10'
p1321
F6.0
sS'7.2'
p1322
F3.0
sS'7.3'
p1323
F6.0
sS'7.1'
p1324
F16.0
sS'4.11'
p1325
F3.0
sS'4.10'
p1326
F5.0
sS'4.13'
p1327
F1.0
sS'4.12'
p1328
F2.0
sS'4.15'
p1329
F5.0
sS'4.14'
p1330
F3.0
sS'4.16'
p1331
F4.0
sS'2.9'
p1332
F6.0
sS'2.8'
p1333
F4.0
sS'3.2'
p1334
F23.0
sS'3.1'
p1335
F20.0
sS'2.3'
p1336
F15.0
sS'2.2'
p1337
F2.0
sS'2.1'
p1338
F3.0
sS'2.7'
p1339
F1.0
sS'2.6'
p1340
F24.0
sS'2.5'
p1341
F4.0
sS'2.4'
p1342
F4.0
sS'9.22'
p1343
F2.0
sS'9.21'
p1344
F4.0
sS'9.20'
p1345
F4.0
sS'9.18'
p1346
F5.0
sS'9.19'
p1347
F4.0
sS'9.16'
p1348
F3.0
sS'9.17'
p1349
F3.0
sS'9.14'
p1350
F2.0
sS'9.15'
p1351
F2.0
sS'9.12'
p1352
F2.0
sS'9.13'
p1353
F30.0
sS'9.10'
p1354
F14.0
sS'9.11'
p1355
F32.0
sS'8.1'
p1356
F1.0
sS'8.3'
p1357
F19.0
sS'8.2'
p1358
F23.0
sS'8.5'
p1359
F2.0
sS'8.4'
p1360
F19.0
sS'8.7'
p1361
F21.0
sS'8.6'
p1362
F2.0
sS'8.8'
p1363
F24.0
sS'9.8'
p1364
F2.0
sS'9.9'
p1365
F10.0
sS'9.4'
p1366
F42.0
sS'9.5'
p1367
F7.0
sS'9.6'
p1368
F18.0
sS'9.7'
p1369
F2.0
sS'9.1'
p1370
F13.0
sS'9.2'
p1371
F9.0
sS'9.3'
p1372
F53.0
sS'6.19'
p1373
F2.0
sS'6.18'
p1374
F4.0
sS'6.13'
p1375
F3.0
sS'6.12'
p1376
F2.0
sS'6.11'
p1377
F2.0
sS'6.10'
p1378
F30.0
sS'6.17'
p1379
F4.0
sS'6.16'
p1380
F4.0
sS'6.15'
p1381
F5.0
sS'6.14'
p1382
F3.0
sS'5.12'
p1383
F3.0
sS'5.13'
p1384
F3.0
sS'5.10'
p1385
F4.0
sS'5.11'
p1386
F3.0
sS'5.14'
p1387
F1.0
sS'1.4'
p1388
F20.0
sS'1.5'
p1389
F3.0
sS'1.1'
p1390
F2.0
sS'1.2'
p1391
F1.0
sS'1.3'
p1392
F20.0
sS'4.5'
p1393
F1.0
sS'4.4'
p1394
F15.0
sS'4.7'
p1395
F12.0
sS'4.6'
p1396
F29.0
sS'4.1'
p1397
F21.0
sS'5.5'
p1398
F30.0
sS'4.3'
p1399
F3.0
sS'4.2'
p1400
F24.0
sS'5.8'
p1401
F2.0
sS'5.9'
p1402
F2.0
sS'4.9'
p1403
F5.0
sS'4.8'
p1404
F4.0
sS'7.4'
p1405
F4.0
sS'5.1'
p1406
F9.0
sS'5.2'
p1407
F13.0
sS'5.3'
p1408
F31.0
sS'5.4'
p1409
F2.0
sS'5.6'
p1410
F1.0
sS'5.7'
p1411
F1.0
ssS'079-4736087'
p1412
(dp1413
S'1.4'
p1414
F2.0
sS'1.5'
p1415
F1.0
sS'4.13'
p1416
F4.0
sS'4.12'
p1417
F6.0
sS'4.15'
p1418
F3.0
sS'1.1'
p1419
F1.0
sS'1.2'
p1420
F24.0
sS'1.3'
p1421
F16.0
sS'3.10'
p1422
F1.0
sS'3.11'
p1423
F11.0
sS'3.12'
p1424
F10.0
sS'3.6'
p1425
F4.0
sS'3.7'
p1426
F5.0
sS'3.4'
p1427
F20.0
sS'3.5'
p1428
F19.0
sS'3.2'
p1429
F14.0
sS'3.3'
p1430
F1.0
sS'6.1'
p1431
F25.0
sS'3.1'
p1432
F25.0
sS'2.3'
p1433
F31.0
sS'2.2'
p1434
F26.0
sS'2.1'
p1435
F1.0
sS'2.7'
p1436
F25.0
sS'2.6'
p1437
F2.0
sS'2.5'
p1438
F1.0
sS'2.4'
p1439
F36.0
sS'4.5'
p1440
F2.0
sS'4.4'
p1441
F3.0
sS'4.7'
p1442
F22.0
sS'4.6'
p1443
F44.0
sS'4.1'
p1444
F2.0
sS'5.5'
p1445
F16.0
sS'4.3'
p1446
F17.0
sS'4.2'
p1447
F25.0
sS'5.8'
p1448
F21.0
sS'5.9'
p1449
F1.0
sS'4.16'
p1450
F3.0
sS'4.9'
p1451
F1.0
sS'4.8'
p1452
F23.0
sS'3.8'
p1453
F8.0
sS'4.11'
p1454
F1.0
sS'3.9'
p1455
F11.0
sS'2.10'
p1456
F2.0
sS'5.1'
p1457
F2.0
sS'5.11'
p1458
F6.0
sS'5.2'
p1459
F25.0
sS'4.14'
p1460
F2.0
sS'5.13'
p1461
F4.0
sS'5.10'
p1462
F2.0
sS'5.3'
p1463
F17.0
sS'4.10'
p1464
F1.0
sS'5.4'
p1465
F8.0
sS'5.12'
p1466
F4.0
sS'5.6'
p1467
F1.0
sS'5.7'
p1468
F1.0
sS'2.9'
p1469
F3.0
sS'2.8'
p1470
F17.0
sS'6.3'
p1471
F53.0
sS'6.2'
p1472
F28.0
ssS'107-16164699'
p1473
(dp1474
S'1.4'
p1475
F23.0
sS'1.5'
p1476
F6.0
sS'1.6'
p1477
F6.0
sS'1.7'
p1478
F1.0
sS'1.1'
p1479
F24.0
sS'1.2'
p1480
F8.0
sS'1.3'
p1481
F28.0
sS'3.10'
p1482
F15.0
sS'3.11'
p1483
F10.0
sS'3.12'
p1484
F9.0
sS'3.13'
p1485
F6.0
sS'1.8'
p1486
F2.0
sS'1.9'
p1487
F3.0
sS'3.16'
p1488
F12.0
sS'3.17'
p1489
F11.0
sS'3.6'
p1490
F7.0
sS'3.7'
p1491
F6.0
sS'3.4'
p1492
F4.0
sS'2.8'
p1493
F1.0
sS'3.2'
p1494
F5.0
sS'3.3'
p1495
F11.0
sS'6.1'
p1496
F2.0
sS'3.1'
p1497
F15.0
sS'2.3'
p1498
F1.0
sS'2.2'
p1499
F13.0
sS'2.1'
p1500
F5.0
sS'2.7'
p1501
F2.0
sS'2.6'
p1502
F2.0
sS'2.5'
p1503
F7.0
sS'2.4'
p1504
F5.0
sS'4.5'
p1505
F13.0
sS'4.4'
p1506
F9.0
sS'4.7'
p1507
F4.0
sS'4.6'
p1508
F40.0
sS'4.1'
p1509
F4.0
sS'5.5'
p1510
F8.0
sS'1.10'
p1511
F1.0
sS'4.2'
p1512
F8.0
sS'5.8'
p1513
F2.0
sS'5.9'
p1514
F3.0
sS'4.9'
p1515
F1.0
sS'4.8'
p1516
F6.0
sS'5.6'
p1517
F17.0
sS'3.8'
p1518
F8.0
sS'4.11'
p1519
F3.0
sS'3.9'
p1520
F12.0
sS'5.1'
p1521
F18.0
sS'3.14'
p1522
F1.0
sS'5.2'
p1523
F40.0
sS'3.15'
p1524
F1.0
sS'6.4'
p1525
F2.0
sS'5.10'
p1526
F1.0
sS'5.3'
p1527
F20.0
sS'4.12'
p1528
F1.0
sS'4.10'
p1529
F3.0
sS'5.4'
p1530
F1.0
sS'3.18'
p1531
F4.0
sS'7.1'
p1532
F1.0
sS'6.7'
p1533
F1.0
sS'4.3'
p1534
F7.0
sS'6.6'
p1535
F4.0
sS'5.7'
p1536
F1.0
sS'6.5'
p1537
F2.0
sS'3.5'
p1538
F3.0
sS'6.3'
p1539
F8.0
sS'6.2'
p1540
F6.0
ssS'070-4154814'
p1541
(dp1542
S'6.7'
p1543
F15.0
sS'6.6'
p1544
F5.0
sS'6.5'
p1545
F7.0
sS'6.4'
p1546
F10.0
sS'6.3'
p1547
F16.0
sS'6.2'
p1548
F10.0
sS'6.1'
p1549
F20.0
sS'6.9'
p1550
F9.0
sS'6.8'
p1551
F6.0
sS'2.17'
p1552
F13.0
sS'2.16'
p1553
F8.0
sS'2.15'
p1554
F12.0
sS'2.14'
p1555
F8.0
sS'2.13'
p1556
F1.0
sS'2.12'
p1557
F5.0
sS'2.11'
p1558
F11.0
sS'2.10'
p1559
F44.0
sS'3.10'
p1560
F1.0
sS'3.11'
p1561
F1.0
sS'3.12'
p1562
F23.0
sS'3.13'
p1563
F15.0
sS'3.14'
p1564
F4.0
sS'3.15'
p1565
F17.0
sS'3.16'
p1566
F1.0
sS'3.17'
p1567
F1.0
sS'3.6'
p1568
F8.0
sS'3.7'
p1569
F8.0
sS'2.9'
p1570
F1.0
sS'2.8'
p1571
F1.0
sS'3.2'
p1572
F11.0
sS'3.3'
p1573
F5.0
sS'3.1'
p1574
F44.0
sS'2.3'
p1575
F19.0
sS'2.2'
p1576
F21.0
sS'2.1'
p1577
F10.0
sS'2.7'
p1578
F32.0
sS'2.6'
p1579
F18.0
sS'2.5'
p1580
F27.0
sS'2.4'
p1581
F22.0
sS'6.19'
p1582
F35.0
sS'6.18'
p1583
F11.0
sS'6.13'
p1584
F2.0
sS'6.12'
p1585
F1.0
sS'6.11'
p1586
F5.0
sS'6.10'
p1587
F8.0
sS'6.17'
p1588
F11.0
sS'6.16'
p1589
F15.0
sS'6.15'
p1590
F14.0
sS'6.14'
p1591
F2.0
sS'5.12'
p1592
F2.0
sS'5.13'
p1593
F1.0
sS'5.10'
p1594
F35.0
sS'5.11'
p1595
F6.0
sS'5.16'
p1596
F8.0
sS'5.17'
p1597
F13.0
sS'5.14'
p1598
F8.0
sS'5.15'
p1599
F12.0
sS'3.4'
p1600
F6.0
sS'3.5'
p1601
F21.0
sS'1.1'
p1602
F43.0
sS'1.2'
p1603
F10.0
sS'1.3'
p1604
F4.0
sS'4.5'
p1605
F34.0
sS'4.4'
p1606
F10.0
sS'4.7'
p1607
F1.0
sS'4.6'
p1608
F5.0
sS'4.1'
p1609
F13.0
sS'5.5'
p1610
F1.0
sS'4.3'
p1611
F10.0
sS'4.2'
p1612
F14.0
sS'5.8'
p1613
F11.0
sS'5.9'
p1614
F11.0
sS'3.8'
p1615
F16.0
sS'3.9'
p1616
F31.0
sS'5.1'
p1617
F19.0
sS'5.2'
p1618
F9.0
sS'5.3'
p1619
F15.0
sS'5.4'
p1620
F1.0
sS'5.6'
p1621
F14.0
sS'5.7'
p1622
F15.0
sS'6.26'
p1623
F14.0
sS'6.24'
p1624
F13.0
sS'6.25'
p1625
F9.0
sS'6.22'
p1626
F2.0
sS'6.23'
p1627
F9.0
sS'6.20'
p1628
F6.0
sS'6.21'
p1629
F2.0
ssS'061-10140940'
p1630
(dp1631
S'6.7'
p1632
F3.0
sS'6.6'
p1633
F2.0
sS'6.5'
p1634
F14.0
sS'6.4'
p1635
F18.0
sS'6.3'
p1636
F14.0
sS'6.2'
p1637
F2.0
sS'6.1'
p1638
F13.0
sS'6.9'
p1639
F13.0
sS'6.8'
p1640
F8.0
sS'1.12'
p1641
F1.0
sS'1.10'
p1642
F12.0
sS'1.11'
p1643
F3.0
sS'2.17'
p1644
F2.0
sS'2.16'
p1645
F4.0
sS'2.15'
p1646
F13.0
sS'2.14'
p1647
F17.0
sS'2.13'
p1648
F30.0
sS'2.12'
p1649
F16.0
sS'2.11'
p1650
F10.0
sS'2.10'
p1651
F16.0
sS'4.11'
p1652
F31.0
sS'4.10'
p1653
F6.0
sS'4.13'
p1654
F27.0
sS'4.12'
p1655
F10.0
sS'4.15'
p1656
F10.0
sS'4.14'
p1657
F16.0
sS'4.17'
p1658
F30.0
sS'4.16'
p1659
F16.0
sS'4.19'
p1660
F13.0
sS'4.18'
p1661
F17.0
sS'3.6'
p1662
F1.0
sS'3.7'
p1663
F6.0
sS'2.9'
p1664
F27.0
sS'2.8'
p1665
F10.0
sS'3.2'
p1666
F4.0
sS'3.3'
p1667
F3.0
sS'3.1'
p1668
F13.0
sS'2.3'
p1669
F13.0
sS'2.2'
p1670
F16.0
sS'2.1'
p1671
F9.0
sS'2.7'
p1672
F31.0
sS'2.6'
p1673
F6.0
sS'2.5'
p1674
F1.0
sS'2.4'
p1675
F14.0
sS'4.21'
p1676
F2.0
sS'6.19'
p1677
F8.0
sS'6.18'
p1678
F5.0
sS'6.13'
p1679
F2.0
sS'6.12'
p1680
F9.0
sS'6.11'
p1681
F4.0
sS'6.10'
p1682
F4.0
sS'6.17'
p1683
F1.0
sS'6.16'
p1684
F2.0
sS'6.15'
p1685
F7.0
sS'6.14'
p1686
F2.0
sS'5.12'
p1687
F2.0
sS'5.13'
p1688
F7.0
sS'5.10'
p1689
F9.0
sS'5.11'
p1690
F2.0
sS'5.14'
p1691
F2.0
sS'3.4'
p1692
F8.0
sS'3.5'
p1693
F1.0
sS'1.4'
p1694
F26.0
sS'1.5'
p1695
F15.0
sS'1.6'
p1696
F9.0
sS'1.7'
p1697
F15.0
sS'1.1'
p1698
F5.0
sS'1.2'
p1699
F30.0
sS'1.3'
p1700
F9.0
sS'1.8'
p1701
F29.0
sS'1.9'
p1702
F16.0
sS'4.5'
p1703
F17.0
sS'4.4'
p1704
F3.0
sS'4.7'
p1705
F17.0
sS'4.6'
p1706
F13.0
sS'5.4'
p1707
F1.0
sS'5.5'
p1708
F2.0
sS'5.6'
p1709
F7.0
sS'5.7'
p1710
F13.0
sS'5.8'
p1711
F4.0
sS'5.9'
p1712
F4.0
sS'4.9'
p1713
F1.0
sS'4.8'
p1714
F1.0
sS'3.8'
p1715
F1.0
sS'5.1'
p1716
F13.0
sS'5.2'
p1717
F17.0
sS'5.3'
p1718
F13.0
sS'4.20'
p1719
F4.0
sS'4.1'
p1720
F5.0
sS'4.22'
p1721
F1.0
sS'4.23'
p1722
F3.0
sS'4.24'
p1723
F5.0
sS'4.25'
p1724
F2.0
sS'4.26'
p1725
F2.0
sS'4.27'
p1726
F4.0
sS'4.3'
p1727
F2.0
sS'4.2'
p1728
F8.0
sS'6.20'
p1729
F5.0
sS'6.21'
p1730
F10.0
ssS'074-14150913'
p1731
(dp1732
S'7.10'
p1733
F1.0
sS'1.1'
p1734
F21.0
sS'1.2'
p1735
F25.0
sS'1.3'
p1736
F13.0
sS'3.10'
p1737
F5.0
sS'7.5'
p1738
F1.0
sS'7.8'
p1739
F1.0
sS'3.6'
p1740
F2.0
sS'3.7'
p1741
F1.0
sS'2.9'
p1742
F8.0
sS'2.8'
p1743
F8.0
sS'3.2'
p1744
F26.0
sS'3.3'
p1745
F14.0
sS'6.1'
p1746
F20.0
sS'3.1'
p1747
F22.0
sS'2.3'
p1748
F12.0
sS'2.2'
p1749
F14.0
sS'2.1'
p1750
F5.0
sS'7.9'
p1751
F11.0
sS'2.7'
p1752
F1.0
sS'2.6'
p1753
F2.0
sS'2.5'
p1754
F1.0
sS'2.4'
p1755
F7.0
sS'8.1'
p1756
F3.0
sS'5.1'
p1757
F1.0
sS'5.2'
p1758
F19.0
sS'5.3'
p1759
F3.0
sS'4.1'
p1760
F31.0
sS'5.5'
p1761
F2.0
sS'5.6'
p1762
F13.0
sS'5.7'
p1763
F1.0
sS'5.8'
p1764
F11.0
sS'5.9'
p1765
F1.0
sS'6.9'
p1766
F5.0
sS'6.5'
p1767
F12.0
sS'3.8'
p1768
F4.0
sS'7.7'
p1769
F13.0
sS'2.17'
p1770
F1.0
sS'2.16'
p1771
F8.0
sS'2.15'
p1772
F14.0
sS'2.14'
p1773
F1.0
sS'2.13'
p1774
F2.0
sS'2.12'
p1775
F3.0
sS'2.11'
p1776
F8.0
sS'2.10'
p1777
F6.0
sS'6.8'
p1778
F3.0
sS'7.2'
p1779
F12.0
sS'6.10'
p1780
F4.0
sS'7.4'
p1781
F6.0
sS'6.4'
p1782
F7.0
sS'5.4'
p1783
F1.0
sS'3.9'
p1784
F1.0
sS'7.3'
p1785
F13.0
sS'7.1'
p1786
F1.0
sS'6.7'
p1787
F1.0
sS'6.6'
p1788
F1.0
sS'3.4'
p1789
F14.0
sS'3.5'
p1790
F2.0
sS'6.3'
p1791
F1.0
sS'7.6'
p1792
F2.0
sS'6.2'
p1793
F14.0
ssS'060-4302525'
p1794
(dp1795
S'1.4'
p1796
F11.0
sS'1.5'
p1797
F27.0
sS'1.6'
p1798
F6.0
sS'1.7'
p1799
F4.0
sS'1.1'
p1800
F14.0
sS'1.2'
p1801
F22.0
sS'1.3'
p1802
F16.0
sS'3.10'
p1803
F9.0
sS'3.11'
p1804
F21.0
sS'3.12'
p1805
F5.0
sS'3.13'
p1806
F2.0
sS'1.8'
p1807
F8.0
sS'1.9'
p1808
F20.0
sS'3.6'
p1809
F12.0
sS'3.7'
p1810
F28.0
sS'3.4'
p1811
F23.0
sS'3.5'
p1812
F17.0
sS'3.2'
p1813
F4.0
sS'3.3'
p1814
F15.0
sS'6.1'
p1815
F4.0
sS'3.1'
p1816
F9.0
sS'2.3'
p1817
F5.0
sS'2.2'
p1818
F8.0
sS'2.1'
p1819
F8.0
sS'2.7'
p1820
F1.0
sS'2.6'
p1821
F12.0
sS'2.5'
p1822
F15.0
sS'2.4'
p1823
F12.0
sS'4.5'
p1824
F6.0
sS'4.4'
p1825
F3.0
sS'4.7'
p1826
F3.0
sS'4.6'
p1827
F7.0
sS'1.12'
p1828
F1.0
sS'5.5'
p1829
F16.0
sS'1.10'
p1830
F4.0
sS'1.11'
p1831
F1.0
sS'5.8'
p1832
F4.0
sS'5.9'
p1833
F7.0
sS'8.5'
p1834
F2.0
sS'4.9'
p1835
F1.0
sS'4.8'
p1836
F4.0
sS'5.6'
p1837
F15.0
sS'3.8'
p1838
F7.0
sS'5.7'
p1839
F3.0
sS'6.4'
p1840
F23.0
sS'7.4'
p1841
F1.0
sS'3.9'
p1842
F5.0
sS'8.3'
p1843
F1.0
sS'8.1'
p1844
F13.0
sS'8.9'
p1845
F1.0
sS'5.1'
p1846
F13.0
sS'5.4'
p1847
F1.0
sS'5.2'
p1848
F28.0
sS'5.12'
p1849
F5.0
sS'5.13'
p1850
F8.0
sS'5.10'
p1851
F8.0
sS'5.3'
p1852
F1.0
sS'5.16'
p1853
F10.0
sS'5.14'
p1854
F9.0
sS'5.15'
p1855
F9.0
sS'4.1'
p1856
F15.0
sS'8.4'
p1857
F5.0
sS'7.1'
p1858
F11.0
sS'7.2'
p1859
F6.0
sS'8.7'
p1860
F24.0
sS'4.3'
p1861
F2.0
sS'8.6'
p1862
F10.0
sS'7.3'
p1863
F7.0
sS'4.2'
p1864
F14.0
sS'6.5'
p1865
F1.0
sS'8.2'
p1866
F11.0
sS'5.11'
p1867
F4.0
sS'8.8'
p1868
F2.0
sS'6.3'
p1869
F9.0
sS'6.2'
p1870
F1.0
ssS'078-15693133'
p1871
(dp1872
S'1.4'
p1873
F8.0
sS'1.5'
p1874
F1.0
sS'1.6'
p1875
F1.0
sS'4.12'
p1876
F1.0
sS'4.15'
p1877
F11.0
sS'1.1'
p1878
F16.0
sS'1.2'
p1879
F27.0
sS'1.3'
p1880
F9.0
sS'3.10'
p1881
F1.0
sS'3.11'
p1882
F3.0
sS'3.12'
p1883
F8.0
sS'3.13'
p1884
F1.0
sS'4.13'
p1885
F7.0
sS'3.6'
p1886
F4.0
sS'3.7'
p1887
F1.0
sS'2.9'
p1888
F21.0
sS'2.8'
p1889
F5.0
sS'3.2'
p1890
F6.0
sS'3.3'
p1891
F1.0
sS'3.1'
p1892
F9.0
sS'2.3'
p1893
F10.0
sS'2.2'
p1894
F28.0
sS'2.1'
p1895
F17.0
sS'2.7'
p1896
F21.0
sS'2.6'
p1897
F11.0
sS'2.5'
p1898
F11.0
sS'2.4'
p1899
F22.0
sS'4.5'
p1900
F9.0
sS'4.4'
p1901
F10.0
sS'4.7'
p1902
F11.0
sS'4.6'
p1903
F1.0
sS'4.1'
p1904
F23.0
sS'5.5'
p1905
F23.0
sS'4.3'
p1906
F1.0
sS'4.2'
p1907
F12.0
sS'5.8'
p1908
F11.0
sS'5.9'
p1909
F10.0
sS'4.16'
p1910
F1.0
sS'4.9'
p1911
F17.0
sS'4.8'
p1912
F8.0
sS'5.20'
p1913
F2.0
sS'3.8'
p1914
F1.0
sS'2.19'
p1915
F1.0
sS'2.18'
p1916
F1.0
sS'2.17'
p1917
F1.0
sS'2.16'
p1918
F4.0
sS'2.15'
p1919
F1.0
sS'2.14'
p1920
F1.0
sS'2.13'
p1921
F1.0
sS'2.12'
p1922
F7.0
sS'2.11'
p1923
F10.0
sS'2.10'
p1924
F12.0
sS'5.1'
p1925
F23.0
sS'5.11'
p1926
F11.0
sS'5.2'
p1927
F27.0
sS'4.14'
p1928
F1.0
sS'5.13'
p1929
F18.0
sS'5.10'
p1930
F2.0
sS'5.3'
p1931
F9.0
sS'5.16'
p1932
F2.0
sS'5.17'
p1933
F8.0
sS'5.14'
p1934
F21.0
sS'5.15'
p1935
F2.0
sS'4.10'
p1936
F20.0
sS'5.4'
p1937
F1.0
sS'5.18'
p1938
F2.0
sS'5.19'
p1939
F12.0
sS'3.9'
p1940
F1.0
sS'5.12'
p1941
F8.0
sS'5.6'
p1942
F12.0
sS'5.7'
p1943
F2.0
sS'3.4'
p1944
F1.0
sS'3.5'
p1945
F1.0
sS'4.11'
p1946
F1.0
sS'2.22'
p1947
F8.0
sS'2.23'
p1948
F1.0
sS'2.20'
p1949
F1.0
sS'2.21'
p1950
F3.0
ssS'078-6832141'
p1951
(dp1952
S'7.2'
p1953
F2.0
sS'7.3'
p1954
F12.0
sS'6.5'
p1955
F2.0
sS'6.4'
p1956
F1.0
sS'6.3'
p1957
F1.0
sS'6.2'
p1958
F10.0
sS'6.1'
p1959
F18.0
sS'8.15'
p1960
F2.0
sS'8.14'
p1961
F1.0
sS'8.17'
p1962
F16.0
sS'8.16'
p1963
F12.0
sS'8.11'
p1964
F1.0
sS'8.10'
p1965
F1.0
sS'6.9'
p1966
F7.0
sS'6.8'
p1967
F4.0
sS'6.7'
p1968
F6.0
sS'6.6'
p1969
F5.0
sS'7.1'
p1970
F5.0
sS'4.11'
p1971
F8.0
sS'4.10'
p1972
F2.0
sS'4.13'
p1973
F4.0
sS'4.12'
p1974
F7.0
sS'7.4'
p1975
F16.0
sS'3.10'
p1976
F17.0
sS'3.11'
p1977
F1.0
sS'3.12'
p1978
F8.0
sS'3.13'
p1979
F10.0
sS'3.14'
p1980
F8.0
sS'3.15'
p1981
F13.0
sS'3.6'
p1982
F11.0
sS'3.7'
p1983
F2.0
sS'3.4'
p1984
F1.0
sS'3.5'
p1985
F1.0
sS'3.2'
p1986
F1.0
sS'3.3'
p1987
F13.0
sS'3.1'
p1988
F8.0
sS'2.3'
p1989
F2.0
sS'2.2'
p1990
F1.0
sS'2.1'
p1991
F10.0
sS'3.8'
p1992
F3.0
sS'3.9'
p1993
F13.0
sS'8.13'
p1994
F1.0
sS'8.12'
p1995
F1.0
sS'8.1'
p1996
F3.0
sS'8.3'
p1997
F1.0
sS'8.2'
p1998
F1.0
sS'8.5'
p1999
F1.0
sS'8.4'
p2000
F1.0
sS'8.7'
p2001
F1.0
sS'8.6'
p2002
F1.0
sS'8.9'
p2003
F1.0
sS'8.8'
p2004
F1.0
sS'6.19'
p2005
F7.0
sS'6.18'
p2006
F8.0
sS'6.13'
p2007
F2.0
sS'6.12'
p2008
F1.0
sS'6.11'
p2009
F3.0
sS'6.10'
p2010
F7.0
sS'6.17'
p2011
F2.0
sS'6.16'
p2012
F2.0
sS'6.15'
p2013
F18.0
sS'6.14'
p2014
F1.0
sS'5.10'
p2015
F5.0
sS'5.11'
p2016
F1.0
sS'1.4'
p2017
F7.0
sS'1.5'
p2018
F6.0
sS'1.6'
p2019
F3.0
sS'1.1'
p2020
F17.0
sS'1.2'
p2021
F1.0
sS'1.3'
p2022
F1.0
sS'4.5'
p2023
F1.0
sS'4.4'
p2024
F7.0
sS'4.7'
p2025
F1.0
sS'4.6'
p2026
F1.0
sS'4.1'
p2027
F2.0
sS'5.5'
p2028
F1.0
sS'4.3'
p2029
F1.0
sS'4.2'
p2030
F7.0
sS'5.8'
p2031
F9.0
sS'5.9'
p2032
F7.0
sS'4.9'
p2033
F2.0
sS'4.8'
p2034
F18.0
sS'2.5'
p2035
F16.0
sS'2.4'
p2036
F12.0
sS'5.1'
p2037
F2.0
sS'5.2'
p2038
F4.0
sS'5.3'
p2039
F1.0
sS'5.4'
p2040
F1.0
sS'5.6'
p2041
F6.0
sS'5.7'
p2042
F1.0
sS'6.20'
p2043
F4.0
ssS'094-2808305'
p2044
(dp2045
S'1.4'
p2046
F13.0
sS'1.5'
p2047
F20.0
sS'1.6'
p2048
F3.0
sS'1.7'
p2049
F2.0
sS'4.15'
p2050
F18.0
sS'1.1'
p2051
F7.0
sS'1.2'
p2052
F9.0
sS'1.3'
p2053
F12.0
sS'3.10'
p2054
F4.0
sS'3.11'
p2055
F3.0
sS'3.12'
p2056
F2.0
sS'3.13'
p2057
F3.0
sS'3.14'
p2058
F6.0
sS'3.15'
p2059
F5.0
sS'3.16'
p2060
F9.0
sS'3.6'
p2061
F13.0
sS'3.7'
p2062
F14.0
sS'3.4'
p2063
F8.0
sS'3.5'
p2064
F10.0
sS'3.2'
p2065
F13.0
sS'3.3'
p2066
F2.0
sS'3.1'
p2067
F1.0
sS'2.3'
p2068
F13.0
sS'2.2'
p2069
F10.0
sS'2.1'
p2070
F8.0
sS'4.30'
p2071
F17.0
sS'2.7'
p2072
F4.0
sS'2.6'
p2073
F21.0
sS'2.5'
p2074
F17.0
sS'2.4'
p2075
F14.0
sS'4.5'
p2076
F21.0
sS'4.4'
p2077
F5.0
sS'4.7'
p2078
F11.0
sS'4.6'
p2079
F1.0
sS'4.1'
p2080
F5.0
sS'4.17'
p2081
F2.0
sS'4.3'
p2082
F1.0
sS'4.2'
p2083
F41.0
sS'4.37'
p2084
F3.0
sS'4.16'
p2085
F1.0
sS'4.9'
p2086
F1.0
sS'4.8'
p2087
F17.0
sS'4.36'
p2088
F5.0
sS'5.6'
p2089
F1.0
sS'4.19'
p2090
F8.0
sS'4.39'
p2091
F3.0
sS'3.8'
p2092
F18.0
sS'4.18'
p2093
F8.0
sS'4.34'
p2094
F10.0
sS'4.11'
p2095
F25.0
sS'3.9'
p2096
F21.0
sS'5.3'
p2097
F8.0
sS'4.42'
p2098
F9.0
sS'5.1'
p2099
F13.0
sS'4.38'
p2100
F2.0
sS'5.2'
p2101
F18.0
sS'4.14'
p2102
F7.0
sS'4.29'
p2103
F12.0
sS'4.40'
p2104
F6.0
sS'4.35'
p2105
F7.0
sS'4.20'
p2106
F10.0
sS'4.12'
p2107
F12.0
sS'4.10'
p2108
F10.0
sS'4.21'
p2109
F13.0
sS'4.22'
p2110
F14.0
sS'4.23'
p2111
F21.0
sS'4.24'
p2112
F18.0
sS'4.25'
p2113
F4.0
sS'4.26'
p2114
F5.0
sS'4.27'
p2115
F31.0
sS'4.28'
p2116
F12.0
sS'4.32'
p2117
F20.0
sS'4.33'
p2118
F10.0
sS'5.5'
p2119
F8.0
sS'2.9'
p2120
F1.0
sS'2.8'
p2121
F3.0
sS'5.4'
p2122
F19.0
sS'4.13'
p2123
F17.0
sS'4.31'
p2124
F3.0
sS'4.41'
p2125
F5.0
ssS'071-10334272'
p2126
(dp2127
S'1.4'
p2128
F4.0
sS'1.5'
p2129
F1.0
sS'1.6'
p2130
F2.0
sS'1.7'
p2131
F4.0
sS'4.15'
p2132
F5.0
sS'1.1'
p2133
F2.0
sS'1.2'
p2134
F23.0
sS'1.3'
p2135
F18.0
sS'3.10'
p2136
F2.0
sS'3.11'
p2137
F3.0
sS'3.12'
p2138
F5.0
sS'3.13'
p2139
F4.0
sS'1.8'
p2140
F3.0
sS'1.9'
p2141
F4.0
sS'3.16'
p2142
F2.0
sS'3.17'
p2143
F2.0
sS'3.6'
p2144
F3.0
sS'3.7'
p2145
F24.0
sS'2.9'
p2146
F3.0
sS'2.8'
p2147
F2.0
sS'3.2'
p2148
F17.0
sS'3.3'
p2149
F2.0
sS'3.1'
p2150
F2.0
sS'2.3'
p2151
F1.0
sS'2.2'
p2152
F19.0
sS'2.1'
p2153
F1.0
sS'2.7'
p2154
F5.0
sS'2.6'
p2155
F19.0
sS'2.5'
p2156
F24.0
sS'2.4'
p2157
F3.0
sS'4.5'
p2158
F1.0
sS'4.4'
p2159
F10.0
sS'4.7'
p2160
F20.0
sS'4.6'
p2161
F2.0
sS'1.12'
p2162
F1.0
sS'4.17'
p2163
F5.0
sS'1.10'
p2164
F1.0
sS'1.11'
p2165
F1.0
sS'5.8'
p2166
F23.0
sS'5.9'
p2167
F28.0
sS'4.16'
p2168
F4.0
sS'4.9'
p2169
F3.0
sS'4.8'
p2170
F2.0
sS'5.6'
p2171
F10.0
sS'4.19'
p2172
F2.0
sS'3.8'
p2173
F19.0
sS'5.7'
p2174
F11.0
sS'4.18'
p2175
F2.0
sS'2.15'
p2176
F2.0
sS'2.14'
p2177
F2.0
sS'2.13'
p2178
F2.0
sS'2.12'
p2179
F5.0
sS'2.11'
p2180
F4.0
sS'2.10'
p2181
F5.0
sS'5.1'
p2182
F1.0
sS'3.14'
p2183
F5.0
sS'5.4'
p2184
F13.0
sS'5.2'
p2185
F23.0
sS'3.15'
p2186
F2.0
sS'4.14'
p2187
F3.0
sS'5.10'
p2188
F1.0
sS'5.3'
p2189
F19.0
sS'4.20'
p2190
F2.0
sS'4.12'
p2191
F5.0
sS'4.10'
p2192
F24.0
sS'4.1'
p2193
F2.0
sS'3.9'
p2194
F5.0
sS'5.5'
p2195
F19.0
sS'4.3'
p2196
F26.0
sS'4.2'
p2197
F12.0
sS'3.4'
p2198
F20.0
sS'3.5'
p2199
F2.0
sS'4.11'
p2200
F19.0
sS'4.13'
p2201
F2.0
ssS'007-7484738'
p2202
(dp2203
S'1.4'
p2204
F22.0
sS'1.5'
p2205
F48.0
sS'1.6'
p2206
F1.0
sS'1.7'
p2207
F7.0
sS'1.1'
p2208
F13.0
sS'1.2'
p2209
F26.0
sS'1.3'
p2210
F16.0
sS'1.8'
p2211
F6.0
sS'3.6'
p2212
F2.0
sS'3.7'
p2213
F32.0
sS'2.9'
p2214
F1.0
sS'2.8'
p2215
F1.0
sS'3.2'
p2216
F20.0
sS'3.3'
p2217
F11.0
sS'3.1'
p2218
F1.0
sS'2.3'
p2219
F16.0
sS'2.2'
p2220
F53.0
sS'2.1'
p2221
F15.0
sS'2.7'
p2222
F7.0
sS'2.6'
p2223
F2.0
sS'2.5'
p2224
F8.0
sS'2.4'
p2225
F21.0
sS'4.5'
p2226
F1.0
sS'4.4'
p2227
F28.0
sS'5.2'
p2228
F29.0
sS'5.3'
p2229
F6.0
sS'4.1'
p2230
F26.0
sS'5.5'
p2231
F14.0
sS'4.3'
p2232
F28.0
sS'4.2'
p2233
F17.0
sS'5.8'
p2234
F3.0
sS'5.9'
p2235
F6.0
sS'3.8'
p2236
F6.0
sS'3.9'
p2237
F1.0
sS'2.11'
p2238
F4.0
sS'2.10'
p2239
F2.0
sS'5.1'
p2240
F29.0
sS'5.12'
p2241
F2.0
sS'5.13'
p2242
F6.0
sS'5.10'
p2243
F4.0
sS'5.11'
p2244
F2.0
sS'5.4'
p2245
F18.0
sS'5.6'
p2246
F6.0
sS'5.7'
p2247
F2.0
sS'3.4'
p2248
F8.0
sS'3.5'
p2249
F1.0
ssS'077-4500595'
p2250
(dp2251
S'1.4'
p2252
F1.0
sS'1.5'
p2253
F33.0
sS'1.6'
p2254
F16.0
sS'1.7'
p2255
F1.0
sS'1.1'
p2256
F12.0
sS'1.2'
p2257
F25.0
sS'1.3'
p2258
F9.0
sS'3.10'
p2259
F17.0
sS'3.11'
p2260
F22.0
sS'3.12'
p2261
F24.0
sS'3.13'
p2262
F25.0
sS'1.8'
p2263
F2.0
sS'1.9'
p2264
F1.0
sS'3.16'
p2265
F10.0
sS'3.17'
p2266
F9.0
sS'3.6'
p2267
F26.0
sS'3.7'
p2268
F10.0
sS'2.9'
p2269
F24.0
sS'2.8'
p2270
F23.0
sS'3.2'
p2271
F20.0
sS'3.3'
p2272
F18.0
sS'3.1'
p2273
F12.0
sS'2.3'
p2274
F10.0
sS'2.2'
p2275
F26.0
sS'2.1'
p2276
F13.0
sS'2.7'
p2277
F21.0
sS'2.6'
p2278
F17.0
sS'2.5'
p2279
F34.0
sS'2.4'
p2280
F2.0
sS'4.5'
p2281
F34.0
sS'4.4'
p2282
F1.0
sS'4.7'
p2283
F22.0
sS'4.6'
p2284
F17.0
sS'1.12'
p2285
F1.0
sS'5.5'
p2286
F35.0
sS'1.10'
p2287
F3.0
sS'1.11'
p2288
F9.0
sS'4.9'
p2289
F25.0
sS'4.8'
p2290
F24.0
sS'5.6'
p2291
F20.0
sS'3.8'
p2292
F2.0
sS'5.7'
p2293
F26.0
sS'3.9'
p2294
F34.0
sS'5.1'
p2295
F3.0
sS'3.14'
p2296
F1.0
sS'5.4'
p2297
F19.0
sS'5.2'
p2298
F17.0
sS'3.15'
p2299
F8.0
sS'5.3'
p2300
F23.0
sS'4.1'
p2301
F2.0
sS'3.18'
p2302
F13.0
sS'4.3'
p2303
F22.0
sS'4.2'
p2304
F16.0
sS'3.4'
p2305
F2.0
sS'3.5'
p2306
F13.0
ssS'043-10248963'
p2307
(dp2308
S'7.14'
p2309
F18.0
sS'7.15'
p2310
F2.0
sS'7.16'
p2311
F2.0
sS'7.17'
p2312
F4.0
sS'7.10'
p2313
F9.0
sS'7.11'
p2314
F2.0
sS'7.12'
p2315
F3.0
sS'7.13'
p2316
F14.0
sS'7.18'
p2317
F4.0
sS'7.19'
p2318
F3.0
sS'6.7'
p2319
F5.0
sS'6.6'
p2320
F7.0
sS'6.5'
p2321
F4.0
sS'6.4'
p2322
F1.0
sS'6.3'
p2323
F22.0
sS'6.2'
p2324
F20.0
sS'6.1'
p2325
F17.0
sS'7.5'
p2326
F21.0
sS'8.15'
p2327
F3.0
sS'8.14'
p2328
F2.0
sS'7.8'
p2329
F1.0
sS'7.9'
p2330
F4.0
sS'8.11'
p2331
F2.0
sS'8.10'
p2332
F12.0
sS'6.9'
p2333
F15.0
sS'6.8'
p2334
F10.0
sS'2.14'
p2335
F5.0
sS'2.13'
p2336
F9.0
sS'2.12'
p2337
F8.0
sS'2.11'
p2338
F2.0
sS'2.10'
p2339
F2.0
sS'8.17'
p2340
F18.0
sS'7.2'
p2341
F13.0
sS'7.3'
p2342
F18.0
sS'7.1'
p2343
F50.0
sS'7.6'
p2344
F25.0
sS'7.7'
p2345
F11.0
sS'4.11'
p2346
F3.0
sS'4.10'
p2347
F2.0
sS'7.4'
p2348
F13.0
sS'3.10'
p2349
F18.0
sS'3.11'
p2350
F13.0
sS'3.12'
p2351
F2.0
sS'3.13'
p2352
F2.0
sS'3.14'
p2353
F2.0
sS'3.15'
p2354
F8.0
sS'3.16'
p2355
F9.0
sS'3.17'
p2356
F5.0
sS'3.6'
p2357
F15.0
sS'3.7'
p2358
F8.0
sS'2.9'
p2359
F2.0
sS'2.8'
p2360
F13.0
sS'3.2'
p2361
F1.0
sS'3.3'
p2362
F2.0
sS'3.1'
p2363
F14.0
sS'2.3'
p2364
F14.0
sS'2.2'
p2365
F18.0
sS'2.1'
p2366
F11.0
sS'2.7'
p2367
F18.0
sS'2.6'
p2368
F2.0
sS'2.5'
p2369
F1.0
sS'2.4'
p2370
F7.0
sS'8.16'
p2371
F14.0
sS'8.13'
p2372
F9.0
sS'8.12'
p2373
F5.0
sS'7.24'
p2374
F1.0
sS'7.21'
p2375
F6.0
sS'7.20'
p2376
F6.0
sS'7.23'
p2377
F1.0
sS'7.22'
p2378
F3.0
sS'8.18'
p2379
F2.0
sS'8.1'
p2380
F8.0
sS'8.3'
p2381
F2.0
sS'8.2'
p2382
F3.0
sS'8.5'
p2383
F14.0
sS'8.4'
p2384
F51.0
sS'8.7'
p2385
F14.0
sS'8.6'
p2386
F19.0
sS'8.9'
p2387
F26.0
sS'8.8'
p2388
F22.0
sS'6.19'
p2389
F13.0
sS'6.18'
p2390
F18.0
sS'6.13'
p2391
F19.0
sS'6.12'
p2392
F12.0
sS'6.11'
p2393
F3.0
sS'6.10'
p2394
F2.0
sS'6.17'
p2395
F3.0
sS'6.16'
p2396
F2.0
sS'6.15'
p2397
F8.0
sS'6.14'
p2398
F15.0
sS'5.12'
p2399
F6.0
sS'5.13'
p2400
F3.0
sS'5.10'
p2401
F3.0
sS'5.11'
p2402
F6.0
sS'8.20'
p2403
F4.0
sS'8.21'
p2404
F4.0
sS'8.22'
p2405
F3.0
sS'8.23'
p2406
F6.0
sS'3.4'
p2407
F12.0
sS'3.5'
p2408
F19.0
sS'1.4'
p2409
F1.0
sS'1.5'
p2410
F1.0
sS'1.6'
p2411
F7.0
sS'1.7'
p2412
F8.0
sS'1.1'
p2413
F17.0
sS'1.2'
p2414
F12.0
sS'1.3'
p2415
F1.0
sS'1.8'
p2416
F4.0
sS'8.19'
p2417
F2.0
sS'4.5'
p2418
F3.0
sS'4.4'
p2419
F1.0
sS'4.7'
p2420
F2.0
sS'4.6'
p2421
F3.0
sS'4.1'
p2422
F14.0
sS'5.5'
p2423
F18.0
sS'4.3'
p2424
F1.0
sS'4.2'
p2425
F17.0
sS'5.8'
p2426
F4.0
sS'5.9'
p2427
F4.0
sS'4.9'
p2428
F5.0
sS'4.8'
p2429
F5.0
sS'3.8'
p2430
F2.0
sS'3.9'
p2431
F3.0
sS'5.1'
p2432
F8.0
sS'5.2'
p2433
F1.0
sS'5.3'
p2434
F2.0
sS'5.4'
p2435
F14.0
sS'8.24'
p2436
F6.0
sS'5.6'
p2437
F2.0
sS'8.25'
p2438
F3.0
sS'5.7'
p2439
F2.0
sS'6.24'
p2440
F9.0
sS'6.25'
p2441
F5.0
sS'6.22'
p2442
F2.0
sS'6.23'
p2443
F8.0
sS'6.20'
p2444
F2.0
sS'6.21'
p2445
F2.0
ssS'053-15491914'
p2446
(dp2447
S'7.2'
p2448
F12.0
sS'7.3'
p2449
F7.0
sS'6.5'
p2450
F30.0
sS'6.4'
p2451
F2.0
sS'6.3'
p2452
F13.0
sS'6.2'
p2453
F5.0
sS'6.1'
p2454
F2.0
sS'7.5'
p2455
F16.0
sS'6.9'
p2456
F6.0
sS'6.8'
p2457
F10.0
sS'2.10'
p2458
F1.0
sS'6.7'
p2459
F17.0
sS'6.6'
p2460
F2.0
sS'7.1'
p2461
F8.0
sS'7.6'
p2462
F1.0
sS'4.11'
p2463
F6.0
sS'4.10'
p2464
F1.0
sS'4.13'
p2465
F3.0
sS'4.12'
p2466
F6.0
sS'4.15'
p2467
F2.0
sS'4.14'
p2468
F4.0
sS'3.10'
p2469
F18.0
sS'3.11'
p2470
F10.0
sS'3.12'
p2471
F6.0
sS'3.13'
p2472
F2.0
sS'3.14'
p2473
F4.0
sS'3.15'
p2474
F13.0
sS'3.16'
p2475
F1.0
sS'3.6'
p2476
F36.0
sS'3.7'
p2477
F1.0
sS'3.4'
p2478
F21.0
sS'3.5'
p2479
F2.0
sS'3.2'
p2480
F14.0
sS'3.3'
p2481
F9.0
sS'3.1'
p2482
F17.0
sS'2.3'
p2483
F9.0
sS'2.2'
p2484
F14.0
sS'2.1'
p2485
F17.0
sS'2.7'
p2486
F17.0
sS'2.6'
p2487
F35.0
sS'2.5'
p2488
F2.0
sS'2.4'
p2489
F21.0
sS'5.21'
p2490
F2.0
sS'5.20'
p2491
F3.0
sS'8.1'
p2492
F16.0
sS'8.3'
p2493
F1.0
sS'8.2'
p2494
F2.0
sS'6.13'
p2495
F3.0
sS'6.12'
p2496
F9.0
sS'6.11'
p2497
F14.0
sS'6.10'
p2498
F5.0
sS'6.16'
p2499
F1.0
sS'6.15'
p2500
F15.0
sS'6.14'
p2501
F22.0
sS'5.12'
p2502
F2.0
sS'5.13'
p2503
F7.0
sS'5.10'
p2504
F2.0
sS'5.11'
p2505
F2.0
sS'5.16'
p2506
F5.0
sS'5.17'
p2507
F3.0
sS'5.14'
p2508
F7.0
sS'5.15'
p2509
F4.0
sS'5.18'
p2510
F2.0
sS'5.19'
p2511
F3.0
sS'2.9'
p2512
F5.0
sS'2.8'
p2513
F9.0
sS'1.4'
p2514
F20.0
sS'1.5'
p2515
F1.0
sS'1.1'
p2516
F16.0
sS'1.2'
p2517
F13.0
sS'1.3'
p2518
F8.0
sS'4.5'
p2519
F14.0
sS'4.4'
p2520
F10.0
sS'4.7'
p2521
F25.0
sS'4.6'
p2522
F17.0
sS'4.1'
p2523
F8.0
sS'5.5'
p2524
F7.0
sS'4.3'
p2525
F6.0
sS'4.2'
p2526
F11.0
sS'5.8'
p2527
F18.0
sS'5.9'
p2528
F26.0
sS'4.9'
p2529
F1.0
sS'4.8'
p2530
F1.0
sS'3.8'
p2531
F4.0
sS'7.4'
p2532
F6.0
sS'3.9'
p2533
F12.0
sS'5.1'
p2534
F19.0
sS'5.2'
p2535
F1.0
sS'5.3'
p2536
F8.0
sS'5.4'
p2537
F12.0
sS'5.6'
p2538
F10.0
sS'5.7'
p2539
F14.0
ssS'059-11070771'
p2540
(dp2541
S'1.4'
p2542
F9.0
sS'1.5'
p2543
F1.0
sS'1.6'
p2544
F2.0
sS'1.7'
p2545
F1.0
sS'7.10'
p2546
F7.0
sS'1.1'
p2547
F17.0
sS'1.2'
p2548
F21.0
sS'1.3'
p2549
F6.0
sS'3.10'
p2550
F4.0
sS'3.11'
p2551
F5.0
sS'7.5'
p2552
F22.0
sS'1.8'
p2553
F8.0
sS'1.9'
p2554
F10.0
sS'3.6'
p2555
F2.0
sS'3.7'
p2556
F2.0
sS'3.4'
p2557
F23.0
sS'3.5'
p2558
F6.0
sS'3.2'
p2559
F17.0
sS'3.3'
p2560
F9.0
sS'6.1'
p2561
F22.0
sS'3.1'
p2562
F11.0
sS'2.3'
p2563
F1.0
sS'2.2'
p2564
F5.0
sS'2.1'
p2565
F22.0
sS'7.9'
p2566
F5.0
sS'7.7'
p2567
F12.0
sS'7.8'
p2568
F2.0
sS'2.5'
p2569
F6.0
sS'2.4'
p2570
F1.0
sS'4.5'
p2571
F6.0
sS'4.4'
p2572
F4.0
sS'5.2'
p2573
F19.0
sS'4.6'
p2574
F7.0
sS'4.1'
p2575
F10.0
sS'5.5'
p2576
F18.0
sS'1.10'
p2577
F8.0
sS'1.11'
p2578
F13.0
sS'5.8'
p2579
F10.0
sS'5.9'
p2580
F1.0
sS'7.13'
p2581
F8.0
sS'5.6'
p2582
F22.0
sS'3.8'
p2583
F7.0
sS'5.7'
p2584
F7.0
sS'7.4'
p2585
F1.0
sS'3.9'
p2586
F2.0
sS'7.16'
p2587
F13.0
sS'5.1'
p2588
F27.0
sS'7.2'
p2589
F4.0
sS'7.11'
p2590
F8.0
sS'5.10'
p2591
F2.0
sS'5.3'
p2592
F1.0
sS'5.4'
p2593
F2.0
sS'7.3'
p2594
F1.0
sS'7.1'
p2595
F5.0
sS'6.7'
p2596
F7.0
sS'7.14'
p2597
F10.0
sS'4.3'
p2598
F1.0
sS'6.6'
p2599
F6.0
sS'7.12'
p2600
F1.0
sS'4.2'
p2601
F14.0
sS'6.5'
p2602
F4.0
sS'7.15'
p2603
F8.0
sS'6.4'
p2604
F1.0
sS'6.3'
p2605
F11.0
sS'7.6'
p2606
F29.0
sS'6.2'
p2607
F28.0
ssS'067-1027069'
p2608
(dp2609
S'1.4'
p2610
F4.0
sS'1.5'
p2611
F4.0
sS'1.6'
p2612
F1.0
sS'1.7'
p2613
F4.0
sS'1.1'
p2614
F35.0
sS'1.2'
p2615
F29.0
sS'1.3'
p2616
F21.0
sS'3.10'
p2617
F1.0
sS'3.11'
p2618
F4.0
sS'3.12'
p2619
F5.0
sS'3.13'
p2620
F6.0
sS'1.8'
p2621
F5.0
sS'1.9'
p2622
F6.0
sS'3.6'
p2623
F9.0
sS'3.7'
p2624
F28.0
sS'2.9'
p2625
F22.0
sS'2.8'
p2626
F30.0
sS'3.2'
p2627
F5.0
sS'3.3'
p2628
F19.0
sS'5.21'
p2629
F6.0
sS'3.1'
p2630
F5.0
sS'2.3'
p2631
F18.0
sS'2.2'
p2632
F4.0
sS'2.1'
p2633
F4.0
sS'2.7'
p2634
F36.0
sS'2.6'
p2635
F1.0
sS'2.5'
p2636
F1.0
sS'2.4'
p2637
F31.0
sS'4.5'
p2638
F3.0
sS'4.4'
p2639
F3.0
sS'5.2'
p2640
F22.0
sS'5.3'
p2641
F17.0
sS'4.1'
p2642
F21.0
sS'5.5'
p2643
F6.0
sS'1.10'
p2644
F4.0
sS'4.2'
p2645
F22.0
sS'5.8'
p2646
F12.0
sS'5.9'
p2647
F20.0
sS'6.1'
p2648
F21.0
sS'6.9'
p2649
F1.0
sS'5.6'
p2650
F7.0
sS'5.25'
p2651
F3.0
sS'3.8'
p2652
F12.0
sS'5.24'
p2653
F3.0
sS'2.16'
p2654
F7.0
sS'2.15'
p2655
F8.0
sS'2.14'
p2656
F5.0
sS'2.13'
p2657
F9.0
sS'2.12'
p2658
F1.0
sS'2.11'
p2659
F5.0
sS'2.10'
p2660
F5.0
sS'6.8'
p2661
F3.0
sS'5.1'
p2662
F22.0
sS'3.14'
p2663
F4.0
sS'6.2'
p2664
F23.0
sS'6.10'
p2665
F6.0
sS'3.15'
p2666
F8.0
sS'5.12'
p2667
F9.0
sS'5.13'
p2668
F13.0
sS'5.10'
p2669
F14.0
sS'5.11'
p2670
F19.0
sS'5.16'
p2671
F1.0
sS'5.17'
p2672
F4.0
sS'5.14'
p2673
F36.0
sS'5.15'
p2674
F26.0
sS'6.5'
p2675
F7.0
sS'5.4'
p2676
F16.0
sS'5.18'
p2677
F4.0
sS'5.19'
p2678
F4.0
sS'3.9'
p2679
F21.0
sS'5.20'
p2680
F2.0
sS'6.7'
p2681
F1.0
sS'4.3'
p2682
F1.0
sS'6.6'
p2683
F18.0
sS'5.7'
p2684
F26.0
sS'3.4'
p2685
F32.0
sS'6.3'
p2686
F10.0
sS'3.5'
p2687
F27.0
sS'6.4'
p2688
F66.0
sS'5.23'
p2689
F1.0
sS'5.22'
p2690
F1.0
ssS'059-7186494'
p2691
(dp2692
S'1.4'
p2693
F8.0
sS'1.5'
p2694
F12.0
sS'1.6'
p2695
F13.0
sS'1.7'
p2696
F1.0
sS'4.15'
p2697
F1.0
sS'1.1'
p2698
F8.0
sS'1.2'
p2699
F15.0
sS'1.3'
p2700
F3.0
sS'3.10'
p2701
F8.0
sS'3.11'
p2702
F1.0
sS'3.12'
p2703
F5.0
sS'3.13'
p2704
F8.0
sS'1.8'
p2705
F1.0
sS'1.9'
p2706
F9.0
sS'3.6'
p2707
F13.0
sS'3.7'
p2708
F14.0
sS'3.4'
p2709
F4.0
sS'2.8'
p2710
F1.0
sS'3.2'
p2711
F9.0
sS'3.3'
p2712
F16.0
sS'3.1'
p2713
F18.0
sS'2.3'
p2714
F16.0
sS'2.2'
p2715
F9.0
sS'2.1'
p2716
F11.0
sS'2.7'
p2717
F6.0
sS'2.6'
p2718
F1.0
sS'2.5'
p2719
F1.0
sS'2.4'
p2720
F8.0
sS'4.5'
p2721
F14.0
sS'4.4'
p2722
F7.0
sS'4.7'
p2723
F21.0
sS'4.6'
p2724
F19.0
sS'1.12'
p2725
F7.0
sS'4.17'
p2726
F1.0
sS'1.10'
p2727
F5.0
sS'1.11'
p2728
F8.0
sS'4.16'
p2729
F2.0
sS'4.9'
p2730
F9.0
sS'4.8'
p2731
F1.0
sS'4.19'
p2732
F10.0
sS'3.8'
p2733
F1.0
sS'4.18'
p2734
F2.0
sS'4.11'
p2735
F4.0
sS'3.9'
p2736
F1.0
sS'3.14'
p2737
F7.0
sS'4.14'
p2738
F14.0
sS'4.20'
p2739
F6.0
sS'4.12'
p2740
F9.0
sS'4.10'
p2741
F16.0
sS'4.1'
p2742
F10.0
sS'4.22'
p2743
F8.0
sS'4.3'
p2744
F11.0
sS'4.2'
p2745
F6.0
sS'4.21'
p2746
F9.0
sS'3.5'
p2747
F9.0
sS'4.13'
p2748
F13.0
ssS'074-2313297'
p2749
(dp2750
S'7.14'
p2751
F27.0
sS'7.15'
p2752
F6.0
sS'7.16'
p2753
F12.0
sS'7.17'
p2754
F8.0
sS'7.10'
p2755
F19.0
sS'7.11'
p2756
F17.0
sS'7.12'
p2757
F21.0
sS'7.13'
p2758
F27.0
sS'7.18'
p2759
F29.0
sS'7.19'
p2760
F2.0
sS'7.2'
p2761
F7.0
sS'7.3'
p2762
F2.0
sS'6.5'
p2763
F1.0
sS'6.4'
p2764
F27.0
sS'6.3'
p2765
F24.0
sS'7.7'
p2766
F14.0
sS'6.1'
p2767
F4.0
sS'7.5'
p2768
F5.0
sS'7.8'
p2769
F11.0
sS'7.9'
p2770
F11.0
sS'8.11'
p2771
F16.0
sS'8.10'
p2772
F26.0
sS'6.9'
p2773
F6.0
sS'6.8'
p2774
F9.0
sS'1.12'
p2775
F9.0
sS'1.13'
p2776
F1.0
sS'1.10'
p2777
F2.0
sS'1.11'
p2778
F3.0
sS'2.13'
p2779
F1.0
sS'2.12'
p2780
F11.0
sS'2.11'
p2781
F16.0
sS'2.10'
p2782
F18.0
sS'6.7'
p2783
F9.0
sS'6.6'
p2784
F4.0
sS'7.1'
p2785
F32.0
sS'7.6'
p2786
F14.0
sS'6.2'
p2787
F10.0
sS'4.11'
p2788
F9.0
sS'4.10'
p2789
F3.0
sS'4.12'
p2790
F1.0
sS'7.4'
p2791
F12.0
sS'3.6'
p2792
F1.0
sS'3.7'
p2793
F2.0
sS'2.9'
p2794
F10.0
sS'2.8'
p2795
F10.0
sS'3.2'
p2796
F27.0
sS'3.3'
p2797
F28.0
sS'3.1'
p2798
F25.0
sS'2.3'
p2799
F2.0
sS'2.2'
p2800
F7.0
sS'2.1'
p2801
F32.0
sS'2.7'
p2802
F13.0
sS'2.6'
p2803
F13.0
sS'2.5'
p2804
F4.0
sS'2.4'
p2805
F11.0
sS'8.13'
p2806
F8.0
sS'8.12'
p2807
F12.0
sS'7.21'
p2808
F1.0
sS'7.20'
p2809
F30.0
sS'8.1'
p2810
F14.0
sS'8.3'
p2811
F11.0
sS'8.2'
p2812
F11.0
sS'8.5'
p2813
F17.0
sS'8.4'
p2814
F19.0
sS'8.7'
p2815
F42.0
sS'8.6'
p2816
F13.0
sS'8.9'
p2817
F23.0
sS'8.8'
p2818
F17.0
sS'5.12'
p2819
F19.0
sS'5.13'
p2820
F17.0
sS'5.10'
p2821
F11.0
sS'5.11'
p2822
F11.0
sS'5.14'
p2823
F12.0
sS'5.15'
p2824
F1.0
sS'3.4'
p2825
F14.0
sS'3.5'
p2826
F2.0
sS'1.4'
p2827
F1.0
sS'1.5'
p2828
F2.0
sS'1.6'
p2829
F3.0
sS'1.7'
p2830
F1.0
sS'1.1'
p2831
F31.0
sS'1.2'
p2832
F6.0
sS'1.3'
p2833
F1.0
sS'1.8'
p2834
F1.0
sS'1.9'
p2835
F2.0
sS'4.5'
p2836
F6.0
sS'4.4'
p2837
F10.0
sS'4.7'
p2838
F7.0
sS'4.6'
p2839
F12.0
sS'5.4'
p2840
F7.0
sS'5.5'
p2841
F2.0
sS'5.6'
p2842
F12.0
sS'5.7'
p2843
F5.0
sS'5.8'
p2844
F14.0
sS'5.9'
p2845
F14.0
sS'4.9'
p2846
F24.0
sS'4.8'
p2847
F12.0
sS'3.8'
p2848
F12.0
sS'5.1'
p2849
F10.0
sS'5.2'
p2850
F1.0
sS'5.3'
p2851
F32.0
sS'4.1'
p2852
F12.0
sS'4.3'
p2853
F14.0
sS'4.2'
p2854
F20.0
ssS'059-15393869'
p2855
(dp2856
S'1.4'
p2857
F25.0
sS'1.5'
p2858
F13.0
sS'1.6'
p2859
F1.0
sS'1.7'
p2860
F2.0
sS'4.15'
p2861
F5.0
sS'1.1'
p2862
F4.0
sS'1.2'
p2863
F42.0
sS'1.3'
p2864
F16.0
sS'4.19'
p2865
F3.0
sS'4.18'
p2866
F3.0
sS'1.8'
p2867
F1.0
sS'1.9'
p2868
F8.0
sS'5.2'
p2869
F4.0
sS'4.20'
p2870
F1.0
sS'3.4'
p2871
F17.0
sS'3.5'
p2872
F2.0
sS'3.2'
p2873
F5.0
sS'3.3'
p2874
F1.0
sS'6.1'
p2875
F8.0
sS'3.1'
p2876
F4.0
sS'2.3'
p2877
F11.0
sS'2.2'
p2878
F1.0
sS'2.1'
p2879
F16.0
sS'2.6'
p2880
F1.0
sS'2.5'
p2881
F3.0
sS'2.4'
p2882
F25.0
sS'1.16'
p2883
F1.0
sS'1.17'
p2884
F10.0
sS'1.14'
p2885
F16.0
sS'1.15'
p2886
F15.0
sS'1.12'
p2887
F13.0
sS'1.13'
p2888
F2.0
sS'1.10'
p2889
F10.0
sS'1.11'
p2890
F8.0
sS'5.8'
p2891
F2.0
sS'5.9'
p2892
F17.0
sS'4.16'
p2893
F3.0
sS'4.9'
p2894
F1.0
sS'4.8'
p2895
F2.0
sS'1.18'
p2896
F2.0
sS'1.19'
p2897
F11.0
sS'5.6'
p2898
F5.0
sS'5.7'
p2899
F6.0
sS'4.11'
p2900
F1.0
sS'4.5'
p2901
F6.0
sS'4.4'
p2902
F5.0
sS'6.2'
p2903
F24.0
sS'5.4'
p2904
F13.0
sS'4.7'
p2905
F17.0
sS'6.3'
p2906
F1.0
sS'4.14'
p2907
F3.0
sS'5.10'
p2908
F2.0
sS'4.6'
p2909
F2.0
sS'4.12'
p2910
F1.0
sS'4.10'
p2911
F1.0
sS'4.1'
p2912
F4.0
sS'5.3'
p2913
F16.0
sS'5.5'
p2914
F1.0
sS'4.3'
p2915
F2.0
sS'4.2'
p2916
F7.0
sS'4.17'
p2917
F1.0
sS'5.1'
p2918
F13.0
sS'4.13'
p2919
F2.0
sS'1.23'
p2920
F9.0
sS'1.22'
p2921
F2.0
sS'1.21'
p2922
F11.0
sS'1.20'
p2923
F2.0
sS'1.27'
p2924
F2.0
sS'1.26'
p2925
F2.0
sS'1.25'
p2926
F3.0
sS'1.24'
p2927
F3.0
ssS'015-2625401'
p2928
(dp2929
S'1.4'
p2930
F1.0
sS'1.5'
p2931
F9.0
sS'1.6'
p2932
F16.0
sS'1.7'
p2933
F22.0
sS'4.15'
p2934
F30.0
sS'1.1'
p2935
F2.0
sS'1.2'
p2936
F26.0
sS'1.3'
p2937
F9.0
sS'3.10'
p2938
F24.0
sS'3.11'
p2939
F8.0
sS'3.12'
p2940
F1.0
sS'1.8'
p2941
F1.0
sS'1.9'
p2942
F18.0
sS'5.2'
p2943
F9.0
sS'3.6'
p2944
F25.0
sS'3.7'
p2945
F11.0
sS'2.9'
p2946
F1.0
sS'2.8'
p2947
F1.0
sS'3.2'
p2948
F5.0
sS'3.3'
p2949
F12.0
sS'6.1'
p2950
F2.0
sS'3.1'
p2951
F7.0
sS'2.3'
p2952
F19.0
sS'2.2'
p2953
F9.0
sS'2.1'
p2954
F12.0
sS'2.7'
p2955
F15.0
sS'2.6'
p2956
F29.0
sS'2.5'
p2957
F10.0
sS'2.4'
p2958
F24.0
sS'1.16'
p2959
F11.0
sS'1.17'
p2960
F8.0
sS'1.14'
p2961
F2.0
sS'1.15'
p2962
F19.0
sS'1.12'
p2963
F1.0
sS'1.13'
p2964
F29.0
sS'1.10'
p2965
F29.0
sS'1.11'
p2966
F32.0
sS'5.8'
p2967
F1.0
sS'5.9'
p2968
F14.0
sS'4.16'
p2969
F16.0
sS'4.9'
p2970
F5.0
sS'4.8'
p2971
F9.0
sS'1.18'
p2972
F18.0
sS'1.19'
p2973
F1.0
sS'5.6'
p2974
F14.0
sS'6.9'
p2975
F43.0
sS'6.5'
p2976
F9.0
sS'3.8'
p2977
F30.0
sS'5.7'
p2978
F1.0
sS'4.18'
p2979
F2.0
sS'6.8'
p2980
F33.0
sS'6.4'
p2981
F1.0
sS'4.11'
p2982
F9.0
sS'3.9'
p2983
F16.0
sS'4.5'
p2984
F8.0
sS'6.10'
p2985
F23.0
sS'4.4'
p2986
F15.0
sS'6.13'
p2987
F2.0
sS'6.12'
p2988
F2.0
sS'6.11'
p2989
F15.0
sS'5.4'
p2990
F42.0
sS'4.7'
p2991
F1.0
sS'6.3'
p2992
F19.0
sS'4.14'
p2993
F11.0
sS'5.10'
p2994
F7.0
sS'4.6'
p2995
F4.0
sS'4.12'
p2996
F19.0
sS'4.10'
p2997
F12.0
sS'4.1'
p2998
F6.0
sS'6.14'
p2999
F22.0
sS'5.3'
p3000
F32.0
sS'5.5'
p3001
F22.0
sS'6.7'
p3002
F9.0
sS'4.3'
p3003
F12.0
sS'6.6'
p3004
F3.0
sS'4.2'
p3005
F15.0
sS'3.4'
p3006
F9.0
sS'4.17'
p3007
F2.0
sS'5.1'
p3008
F2.0
sS'3.5'
p3009
F19.0
sS'4.13'
p3010
F25.0
sS'1.22'
p3011
F1.0
sS'1.21'
p3012
F6.0
sS'1.20'
p3013
F1.0
sS'6.2'
p3014
F5.0
ssS'063-1009111'
p3015
(dp3016
S'1.4'
p3017
F6.0
sS'1.5'
p3018
F18.0
sS'1.6'
p3019
F6.0
sS'1.7'
p3020
F1.0
sS'4.15'
p3021
F11.0
sS'1.1'
p3022
F23.0
sS'1.2'
p3023
F31.0
sS'1.3'
p3024
F29.0
sS'3.10'
p3025
F26.0
sS'3.11'
p3026
F10.0
sS'3.12'
p3027
F1.0
sS'1.8'
p3028
F4.0
sS'1.9'
p3029
F1.0
sS'5.2'
p3030
F14.0
sS'3.6'
p3031
F13.0
sS'3.7'
p3032
F19.0
sS'3.4'
p3033
F6.0
sS'3.5'
p3034
F11.0
sS'3.2'
p3035
F17.0
sS'3.3'
p3036
F11.0
sS'6.1'
p3037
F2.0
sS'3.1'
p3038
F4.0
sS'2.3'
p3039
F30.0
sS'2.2'
p3040
F7.0
sS'2.1'
p3041
F19.0
sS'2.7'
p3042
F20.0
sS'2.6'
p3043
F22.0
sS'2.5'
p3044
F15.0
sS'2.4'
p3045
F18.0
sS'1.16'
p3046
F10.0
sS'1.17'
p3047
F1.0
sS'1.14'
p3048
F18.0
sS'1.15'
p3049
F19.0
sS'1.12'
p3050
F12.0
sS'1.13'
p3051
F6.0
sS'1.10'
p3052
F3.0
sS'1.11'
p3053
F42.0
sS'5.8'
p3054
F7.0
sS'5.9'
p3055
F6.0
sS'6.9'
p3056
F1.0
sS'4.9'
p3057
F4.0
sS'4.8'
p3058
F2.0
sS'1.18'
p3059
F3.0
sS'1.19'
p3060
F6.0
sS'5.6'
p3061
F13.0
sS'3.8'
p3062
F31.0
sS'5.7'
p3063
F21.0
sS'6.8'
p3064
F8.0
sS'6.4'
p3065
F30.0
sS'4.11'
p3066
F8.0
sS'3.9'
p3067
F32.0
sS'4.5'
p3068
F12.0
sS'5.14'
p3069
F33.0
sS'4.4'
p3070
F16.0
sS'5.4'
p3071
F8.0
sS'4.7'
p3072
F5.0
sS'4.14'
p3073
F2.0
sS'5.13'
p3074
F60.0
sS'5.10'
p3075
F16.0
sS'4.6'
p3076
F1.0
sS'5.16'
p3077
F1.0
sS'5.17'
p3078
F2.0
sS'4.12'
p3079
F7.0
sS'5.15'
p3080
F5.0
sS'4.10'
p3081
F4.0
sS'4.1'
p3082
F1.0
sS'5.3'
p3083
F17.0
sS'5.5'
p3084
F6.0
sS'5.12'
p3085
F26.0
sS'4.3'
p3086
F18.0
sS'6.6'
p3087
F28.0
sS'4.2'
p3088
F3.0
sS'6.5'
p3089
F26.0
sS'6.3'
p3090
F14.0
sS'5.1'
p3091
F15.0
sS'5.11'
p3092
F22.0
sS'4.13'
p3093
F4.0
sS'6.7'
p3094
F28.0
sS'1.23'
p3095
F1.0
sS'1.22'
p3096
F9.0
sS'1.21'
p3097
F4.0
sS'1.20'
p3098
F1.0
sS'6.2'
p3099
F22.0
ssS'053-15927827'
p3100
(dp3101
S'7.10'
p3102
F12.0
sS'7.11'
p3103
F10.0
sS'7.12'
p3104
F18.0
sS'7.13'
p3105
F1.0
sS'7.2'
p3106
F20.0
sS'7.3'
p3107
F21.0
sS'6.5'
p3108
F4.0
sS'7.1'
p3109
F13.0
sS'6.3'
p3110
F21.0
sS'6.2'
p3111
F20.0
sS'6.1'
p3112
F13.0
sS'7.5'
p3113
F5.0
sS'7.8'
p3114
F11.0
sS'7.9'
p3115
F12.0
sS'6.9'
p3116
F1.0
sS'6.8'
p3117
F10.0
sS'2.19'
p3118
F4.0
sS'2.18'
p3119
F1.0
sS'2.17'
p3120
F7.0
sS'2.16'
p3121
F11.0
sS'2.15'
p3122
F10.0
sS'2.14'
p3123
F21.0
sS'2.13'
p3124
F26.0
sS'2.12'
p3125
F1.0
sS'2.11'
p3126
F8.0
sS'2.10'
p3127
F19.0
sS'6.7'
p3128
F17.0
sS'6.6'
p3129
F28.0
sS'6.4'
p3130
F14.0
sS'7.6'
p3131
F29.0
sS'7.7'
p3132
F18.0
sS'4.11'
p3133
F6.0
sS'4.10'
p3134
F6.0
sS'4.13'
p3135
F14.0
sS'4.12'
p3136
F12.0
sS'4.15'
p3137
F9.0
sS'7.4'
p3138
F14.0
sS'4.17'
p3139
F2.0
sS'4.16'
p3140
F3.0
sS'3.10'
p3141
F19.0
sS'3.11'
p3142
F28.0
sS'3.12'
p3143
F1.0
sS'3.13'
p3144
F3.0
sS'3.14'
p3145
F5.0
sS'3.15'
p3146
F6.0
sS'3.6'
p3147
F15.0
sS'3.7'
p3148
F7.0
sS'2.9'
p3149
F13.0
sS'2.8'
p3150
F11.0
sS'3.2'
p3151
F7.0
sS'3.3'
p3152
F11.0
sS'3.1'
p3153
F2.0
sS'2.3'
p3154
F10.0
sS'2.2'
p3155
F6.0
sS'2.1'
p3156
F1.0
sS'2.7'
p3157
F6.0
sS'2.6'
p3158
F14.0
sS'2.5'
p3159
F12.0
sS'2.4'
p3160
F7.0
sS'4.21'
p3161
F11.0
sS'4.14'
p3162
F20.0
sS'4.19'
p3163
F21.0
sS'4.18'
p3164
F26.0
sS'3.4'
p3165
F8.0
sS'3.5'
p3166
F13.0
sS'1.4'
p3167
F10.0
sS'1.5'
p3168
F6.0
sS'1.6'
p3169
F1.0
sS'1.7'
p3170
F4.0
sS'1.1'
p3171
F25.0
sS'1.2'
p3172
F20.0
sS'1.3'
p3173
F9.0
sS'4.5'
p3174
F13.0
sS'4.4'
p3175
F8.0
sS'4.7'
p3176
F1.0
sS'4.6'
p3177
F15.0
sS'4.1'
p3178
F2.0
sS'5.5'
p3179
F22.0
sS'4.3'
p3180
F11.0
sS'4.2'
p3181
F7.0
sS'4.9'
p3182
F14.0
sS'4.8'
p3183
F7.0
sS'3.8'
p3184
F12.0
sS'3.9'
p3185
F1.0
sS'5.1'
p3186
F13.0
sS'5.2'
p3187
F19.0
sS'5.3'
p3188
F20.0
sS'4.20'
p3189
F10.0
sS'5.4'
p3190
F13.0
sS'4.22'
p3191
F7.0
sS'4.23'
p3192
F4.0
sS'5.6'
p3193
F5.0
sS'5.7'
p3194
F1.0
ssS'067-11978590'
p3195
(dp3196
S'7.10'
p3197
F3.0
sS'6.7'
p3198
F17.0
sS'6.6'
p3199
F38.0
sS'6.5'
p3200
F10.0
sS'6.4'
p3201
F2.0
sS'6.3'
p3202
F1.0
sS'6.2'
p3203
F17.0
sS'6.1'
p3204
F16.0
sS'7.5'
p3205
F16.0
sS'7.8'
p3206
F1.0
sS'7.9'
p3207
F3.0
sS'6.9'
p3208
F23.0
sS'6.8'
p3209
F5.0
sS'1.12'
p3210
F5.0
sS'1.13'
p3211
F1.0
sS'1.10'
p3212
F3.0
sS'1.11'
p3213
F3.0
sS'2.11'
p3214
F1.0
sS'2.10'
p3215
F6.0
sS'7.2'
p3216
F22.0
sS'7.3'
p3217
F32.0
sS'7.1'
p3218
F7.0
sS'7.6'
p3219
F17.0
sS'7.7'
p3220
F2.0
sS'4.11'
p3221
F4.0
sS'4.10'
p3222
F2.0
sS'4.13'
p3223
F4.0
sS'4.12'
p3224
F5.0
sS'4.15'
p3225
F6.0
sS'4.14'
p3226
F4.0
sS'4.17'
p3227
F9.0
sS'4.16'
p3228
F1.0
sS'4.19'
p3229
F8.0
sS'4.18'
p3230
F5.0
sS'3.6'
p3231
F2.0
sS'3.7'
p3232
F1.0
sS'2.9'
p3233
F1.0
sS'2.8'
p3234
F1.0
sS'3.2'
p3235
F4.0
sS'3.3'
p3236
F8.0
sS'3.1'
p3237
F9.0
sS'2.3'
p3238
F24.0
sS'2.2'
p3239
F16.0
sS'2.1'
p3240
F20.0
sS'2.7'
p3241
F32.0
sS'2.6'
p3242
F11.0
sS'2.5'
p3243
F27.0
sS'2.4'
p3244
F30.0
sS'6.19'
p3245
F5.0
sS'6.18'
p3246
F4.0
sS'6.13'
p3247
F3.0
sS'6.12'
p3248
F6.0
sS'6.11'
p3249
F2.0
sS'6.10'
p3250
F9.0
sS'6.17'
p3251
F2.0
sS'6.16'
p3252
F2.0
sS'6.15'
p3253
F3.0
sS'6.14'
p3254
F7.0
sS'5.12'
p3255
F1.0
sS'5.13'
p3256
F1.0
sS'5.10'
p3257
F7.0
sS'5.11'
p3258
F2.0
sS'5.16'
p3259
F3.0
sS'5.17'
p3260
F3.0
sS'5.14'
p3261
F3.0
sS'5.15'
p3262
F4.0
sS'5.18'
p3263
F5.0
sS'5.19'
p3264
F1.0
sS'3.4'
p3265
F5.0
sS'3.5'
p3266
F6.0
sS'1.4'
p3267
F15.0
sS'1.5'
p3268
F1.0
sS'1.6'
p3269
F1.0
sS'1.7'
p3270
F1.0
sS'1.1'
p3271
F16.0
sS'1.2'
p3272
F24.0
sS'1.3'
p3273
F19.0
sS'1.8'
p3274
F3.0
sS'1.9'
p3275
F4.0
sS'4.5'
p3276
F25.0
sS'4.4'
p3277
F17.0
sS'4.7'
p3278
F16.0
sS'4.6'
p3279
F20.0
sS'5.4'
p3280
F5.0
sS'5.5'
p3281
F22.0
sS'5.6'
p3282
F9.0
sS'5.7'
p3283
F1.0
sS'5.8'
p3284
F6.0
sS'5.9'
p3285
F2.0
sS'4.9'
p3286
F2.0
sS'4.8'
p3287
F2.0
sS'3.8'
p3288
F3.0
sS'7.4'
p3289
F19.0
sS'3.9'
p3290
F3.0
sS'5.1'
p3291
F10.0
sS'5.2'
p3292
F37.0
sS'5.3'
p3293
F16.0
sS'4.20'
p3294
F7.0
sS'4.1'
p3295
F2.0
sS'4.3'
p3296
F2.0
sS'4.2'
p3297
F11.0
sS'6.24'
p3298
F10.0
sS'6.22'
p3299
F6.0
sS'6.23'
p3300
F1.0
sS'6.20'
p3301
F4.0
sS'6.21'
p3302
F4.0
ss.