(dp1
S'066-15270802'
p2
I57
sS'080-5970135'
p3
I75
sS'059-9045120'
p4
I84
sS'075-16233750'
p5
I94
sS'076-4622322'
p6
I67
sS'023-2964247'
p7
I85
sS'078-1321398'
p8
I87
sS'078-3797219'
p9
I105
sS'074-0998972'
p10
I54
sS'058-13714734'
p11
I93
sS'060-0021651'
p12
I87
sS'079-14194071'
p13
I68
sS'068-16207900'
p14
I112
sS'026-4380722'
p15
I71
sS'074-6324762'
p16
I64
sS'078-8112187'
p17
I73
sS'075-15948761'
p18
I101
sS'079-4736087'
p19
I59
sS'107-16164699'
p20
I66
sS'070-4154814'
p21
I87
sS'061-10140940'
p22
I99
sS'074-14150913'
p23
I61
sS'060-4302525'
p24
I75
sS'078-15693133'
p25
I78
sS'078-6832141'
p26
I91
sS'094-2808305'
p27
I80
sS'071-10334272'
p28
I74
sS'007-7484738'
p29
I46
sS'077-4500595'
p30
I55
sS'043-10248963'
p31
I137
sS'053-15491914'
p32
I92
sS'059-11070771'
p33
I66
sS'067-1027069'
p34
I81
sS'059-7186494'
p35
I56
sS'074-2313297'
p36
I104
sS'059-15393869'
p37
I71
sS'015-2625401'
p38
I85
sS'063-1009111'
p39
I83
sS'053-15927827'
p40
I93
sS'067-11978590'
p41
I106
s.