(dp1
S'066-15270802'
p2
(dp3
S'1.4'
p4
F6
sS'1.5'
p5
F10
sS'1.6'
p6
F18
sS'1.7'
p7
F1
sS'1.1'
p8
F3
sS'1.2'
p9
F21
sS'1.3'
p10
F25
sS'1.8'
p11
F2
sS'1.9'
p12
F4
sS'6.7'
p13
F76
sS'6.6'
p14
F2
sS'2.9'
p15
F7
sS'2.8'
p16
F26
sS'3.2'
p17
F11
sS'3.3'
p18
F1
sS'6.1'
p19
F29
sS'3.1'
p20
F17
sS'2.3'
p21
F12
sS'2.2'
p22
F22
sS'2.1'
p23
F10
sS'2.7'
p24
F22
sS'2.6'
p25
F4
sS'2.5'
p26
F1
sS'2.4'
p27
F16
sS'4.5'
p28
F7
sS'4.4'
p29
F1
sS'4.7'
p30
F1
sS'4.6'
p31
F7
sS'4.1'
p32
F1
sS'5.5'
p33
F1
sS'4.3'
p34
F1
sS'4.2'
p35
F75
sS'4.9'
p36
F7
sS'4.8'
p37
F4
sS'6.5'
p38
F1
sS'6.9'
p39
F2
sS'6.8'
p40
F2
sS'4.11'
p41
F1
sS'2.14'
p42
F4
sS'2.13'
p43
F3
sS'2.12'
p44
F2
sS'2.11'
p45
F19
sS'2.10'
p46
F11
sS'5.1'
p47
F2
sS'6.11'
p48
F1
sS'6.10'
p49
F2
sS'5.2'
p50
F76
sS'5.3'
p51
F2
sS'4.10'
p52
F1
sS'5.4'
p53
F1
sS'7.1'
p54
F1
sS'7.2'
p55
F1
sS'5.6'
p56
F1
sS'3.4'
p57
F1
sS'6.4'
p58
F1
sS'6.3'
p59
F2
sS'6.2'
p60
F28
ssS'080-5970135'
p61
(dp62
S'1.4'
p63
F3
sS'8.6'
p64
F1
sS'1.1'
p65
F41
sS'1.2'
p66
F24
sS'1.3'
p67
F43
sS'3.10'
p68
F4
sS'3.11'
p69
F2
sS'9.14'
p70
F10
sS'7.5'
p71
F1
sS'9.12'
p72
F11
sS'9.13'
p73
F1
sS'9.10'
p74
F5
sS'9.11'
p75
F8
sS'3.6'
p76
F25
sS'3.7'
p77
F44
sS'3.4'
p78
F1
sS'3.5'
p79
F42
sS'3.2'
p80
F7
sS'3.3'
p81
F1
sS'6.1'
p82
F10
sS'3.1'
p83
F2
sS'2.3'
p84
F25
sS'2.2'
p85
F37
sS'2.1'
p86
F42
sS'2.7'
p87
F6
sS'2.6'
p88
F1
sS'3.8'
p89
F4
sS'3.9'
p90
F1
sS'8.1'
p91
F5
sS'5.1'
p92
F9
sS'5.2'
p93
F4
sS'5.3'
p94
F1
sS'4.1'
p95
F29
sS'5.5'
p96
F6
sS'5.6'
p97
F7
sS'4.2'
p98
F5
sS'5.8'
p99
F22
sS'5.9'
p100
F24
sS'8.5'
p101
F9
sS'8.13'
p102
F1
sS'8.10'
p103
F2
sS'9.8'
p104
F19
sS'2.5'
p105
F31
sS'8.15'
p106
F2
sS'9.4'
p107
F14
sS'9.5'
p108
F1
sS'7.4'
p109
F2
sS'2.4'
p110
F11
sS'9.1'
p111
F6
sS'8.14'
p112
F4
sS'9.3'
p113
F41
sS'9.15'
p114
F11
sS'8.3'
p115
F40
sS'6.4'
p116
F1
sS'9.9'
p117
F4
sS'5.10'
p118
F19
sS'8.2'
p119
F10
sS'8.12'
p120
F2
sS'5.4'
p121
F29
sS'9.6'
p122
F12
sS'8.4'
p123
F27
sS'7.1'
p124
F13
sS'7.2'
p125
F2
sS'9.7'
p126
F8
sS'8.7'
p127
F1
sS'7.3'
p128
F1
sS'5.7'
p129
F14
sS'2.9'
p130
F2
sS'8.9'
p131
F3
sS'2.8'
p132
F5
sS'9.2'
p133
F11
sS'8.8'
p134
F14
sS'6.3'
p135
F7
sS'8.11'
p136
F3
sS'6.2'
p137
F5
ssS'059-9045120'
p138
(dp139
S'1.4'
p140
F10
sS'1.5'
p141
F1
sS'1.6'
p142
F1
sS'1.7'
p143
F8
sS'4.15'
p144
F3
sS'1.1'
p145
F21
sS'1.2'
p146
F4
sS'1.3'
p147
F27
sS'4.19'
p148
F1
sS'4.18'
p149
F2
sS'5.20'
p150
F2
sS'1.8'
p151
F10
sS'1.9'
p152
F6
sS'5.2'
p153
F19
sS'4.20'
p154
F9
sS'3.4'
p155
F1
sS'3.5'
p156
F3
sS'3.2'
p157
F7
sS'3.3'
p158
F1
sS'5.21'
p159
F10
sS'3.1'
p160
F2
sS'2.3'
p161
F10
sS'2.2'
p162
F19
sS'2.1'
p163
F2
sS'5.18'
p164
F2
sS'2.6'
p165
F1
sS'2.5'
p166
F1
sS'2.4'
p167
F14
sS'1.16'
p168
F2
sS'1.17'
p169
F2
sS'1.14'
p170
F8
sS'1.15'
p171
F2
sS'1.12'
p172
F8
sS'1.13'
p173
F18
sS'1.10'
p174
F3
sS'1.11'
p175
F21
sS'5.8'
p176
F17
sS'5.9'
p177
F3
sS'4.16'
p178
F8
sS'4.9'
p179
F13
sS'4.8'
p180
F2
sS'1.18'
p181
F10
sS'1.19'
p182
F5
sS'5.6'
p183
F16
sS'5.25'
p184
F14
sS'5.14'
p185
F2
sS'5.7'
p186
F15
sS'5.24'
p187
F5
sS'4.11'
p188
F20
sS'4.5'
p189
F15
sS'4.4'
p190
F7
sS'5.4'
p191
F2
sS'4.7'
p192
F16
sS'4.14'
p193
F1
sS'5.13'
p194
F12
sS'5.10'
p195
F14
sS'4.6'
p196
F14
sS'5.16'
p197
F3
sS'5.17'
p198
F8
sS'4.12'
p199
F11
sS'5.15'
p200
F2
sS'4.10'
p201
F39
sS'4.1'
p202
F1
sS'4.22'
p203
F9
sS'4.23'
p204
F4
sS'4.24'
p205
F13
sS'5.3'
p206
F28
sS'5.5'
p207
F8
sS'5.12'
p208
F21
sS'4.3'
p209
F7
sS'4.2'
p210
F3
sS'5.19'
p211
F2
sS'5.23'
p212
F10
sS'4.17'
p213
F2
sS'5.1'
p214
F2
sS'4.21'
p215
F5
sS'5.11'
p216
F40
sS'5.22'
p217
F6
sS'4.13'
p218
F1
sS'1.23'
p219
F13
sS'1.22'
p220
F5
sS'1.21'
p221
F10
sS'1.20'
p222
F2
sS'1.24'
p223
F2
ssS'075-16233750'
p224
(dp225
S'4.11'
p226
F6
sS'3.19'
p227
F2
sS'4.13'
p228
F15
sS'4.12'
p229
F9
sS'4.15'
p230
F3
sS'4.14'
p231
F2
sS'4.17'
p232
F2
sS'4.16'
p233
F2
sS'3.10'
p234
F2
sS'3.11'
p235
F3
sS'3.12'
p236
F1
sS'3.13'
p237
F1
sS'3.14'
p238
F3
sS'3.15'
p239
F2
sS'3.16'
p240
F5
sS'3.17'
p241
F7
sS'3.6'
p242
F2
sS'3.7'
p243
F6
sS'3.4'
p244
F8
sS'3.5'
p245
F1
sS'3.2'
p246
F5
sS'3.3'
p247
F9
sS'3.1'
p248
F20
sS'2.3'
p249
F8
sS'2.2'
p250
F5
sS'2.1'
p251
F1
sS'2.6'
p252
F2
sS'2.5'
p253
F1
sS'2.4'
p254
F14
sS'5.34'
p255
F5
sS'5.35'
p256
F7
sS'5.36'
p257
F2
sS'5.37'
p258
F2
sS'5.30'
p259
F1
sS'5.31'
p260
F1
sS'5.32'
p261
F3
sS'5.33'
p262
F2
sS'3.18'
p263
F2
sS'4.10'
p264
F2
sS'5.27'
p265
F3
sS'5.26'
p266
F8
sS'5.25'
p267
F6
sS'5.24'
p268
F3
sS'5.23'
p269
F4
sS'5.22'
p270
F2
sS'5.21'
p271
F2
sS'5.20'
p272
F3
sS'5.29'
p273
F3
sS'5.28'
p274
F3
sS'4.19'
p275
F3
sS'4.18'
p276
F4
sS'5.12'
p277
F10
sS'5.13'
p278
F9
sS'5.10'
p279
F21
sS'5.11'
p280
F6
sS'5.16'
p281
F6
sS'5.17'
p282
F9
sS'5.14'
p283
F2
sS'5.15'
p284
F2
sS'5.18'
p285
F15
sS'5.19'
p286
F2
sS'4.21'
p287
F8
sS'1.4'
p288
F14
sS'1.5'
p289
F18
sS'1.6'
p290
F8
sS'1.7'
p291
F15
sS'1.1'
p292
F1
sS'1.2'
p293
F11
sS'1.3'
p294
F13
sS'1.8'
p295
F17
sS'1.9'
p296
F1
sS'4.5'
p297
F21
sS'4.4'
p298
F2
sS'4.7'
p299
F10
sS'4.6'
p300
F6
sS'4.1'
p301
F11
sS'5.5'
p302
F1
sS'4.3'
p303
F1
sS'4.2'
p304
F4
sS'5.8'
p305
F2
sS'5.9'
p306
F3
sS'4.9'
p307
F2
sS'4.8'
p308
F9
sS'3.8'
p309
F9
sS'3.9'
p310
F15
sS'5.1'
p311
F14
sS'5.2'
p312
F11
sS'5.3'
p313
F14
sS'4.20'
p314
F6
sS'5.4'
p315
F12
sS'4.22'
p316
F3
sS'4.23'
p317
F3
sS'5.6'
p318
F12
sS'5.7'
p319
F5
ssS'076-4622322'
p320
(dp321
S'1.4'
p322
F3
sS'1.5'
p323
F3
sS'1.6'
p324
F2
sS'1.7'
p325
F6
sS'7.10'
p326
F1
sS'1.1'
p327
F30
sS'1.2'
p328
F2
sS'1.3'
p329
F1
sS'3.10'
p330
F5
sS'3.11'
p331
F6
sS'3.12'
p332
F4
sS'3.13'
p333
F9
sS'1.8'
p334
F24
sS'1.9'
p335
F16
sS'7.6'
p336
F1
sS'3.6'
p337
F25
sS'3.7'
p338
F1
sS'3.4'
p339
F15
sS'2.8'
p340
F6
sS'3.2'
p341
F6
sS'3.3'
p342
F9
sS'6.1'
p343
F26
sS'3.1'
p344
F18
sS'2.3'
p345
F19
sS'2.2'
p346
F19
sS'2.1'
p347
F19
sS'7.9'
p348
F3
sS'2.7'
p349
F1
sS'2.6'
p350
F1
sS'2.5'
p351
F14
sS'2.4'
p352
F17
sS'1.16'
p353
F15
sS'1.17'
p354
F9
sS'1.14'
p355
F18
sS'1.15'
p356
F4
sS'1.12'
p357
F9
sS'1.13'
p358
F44
sS'1.10'
p359
F14
sS'1.11'
p360
F8
sS'1.18'
p361
F23
sS'1.19'
p362
F2
sS'7.8'
p363
F1
sS'3.8'
p364
F1
sS'7.7'
p365
F1
sS'7.4'
p366
F6
sS'3.9'
p367
F4
sS'5.1'
p368
F23
sS'6.2'
p369
F24
sS'5.4'
p370
F22
sS'5.2'
p371
F1
sS'5.3'
p372
F13
sS'7.5'
p373
F12
sS'4.1'
p374
F5
sS'5.5'
p375
F14
sS'7.1'
p376
F25
sS'7.2'
p377
F6
sS'5.6'
p378
F1
sS'7.3'
p379
F12
sS'5.7'
p380
F1
sS'6.3'
p381
F1
sS'3.5'
p382
F28
sS'1.23'
p383
F2
sS'1.22'
p384
F6
sS'1.21'
p385
F4
sS'1.20'
p386
F3
sS'1.25'
p387
F2
sS'1.24'
p388
F3
ssS'023-2964247'
p389
(dp390
S'1.4'
p391
F22
sS'1.5'
p392
F23
sS'1.6'
p393
F1
sS'1.7'
p394
F1
sS'4.15'
p395
F23
sS'1.1'
p396
F9
sS'1.2'
p397
F16
sS'1.3'
p398
F20
sS'3.10'
p399
F17
sS'3.11'
p400
F2
sS'3.12'
p401
F5
sS'3.13'
p402
F11
sS'1.8'
p403
F2
sS'3.15'
p404
F21
sS'3.16'
p405
F23
sS'3.17'
p406
F24
sS'3.6'
p407
F6
sS'3.7'
p408
F23
sS'2.9'
p409
F16
sS'2.8'
p410
F11
sS'3.2'
p411
F19
sS'3.3'
p412
F6
sS'6.1'
p413
F16
sS'3.1'
p414
F14
sS'2.3'
p415
F14
sS'2.2'
p416
F22
sS'2.1'
p417
F5
sS'2.7'
p418
F5
sS'2.6'
p419
F1
sS'2.5'
p420
F15
sS'2.4'
p421
F19
sS'4.5'
p422
F6
sS'4.4'
p423
F3
sS'4.7'
p424
F15
sS'4.6'
p425
F23
sS'4.1'
p426
F25
sS'4.17'
p427
F2
sS'4.3'
p428
F1
sS'4.2'
p429
F4
sS'3.19'
p430
F3
sS'4.24'
p431
F7
sS'4.16'
p432
F24
sS'4.9'
p433
F17
sS'4.8'
p434
F20
sS'4.19'
p435
F1
sS'6.5'
p436
F16
sS'3.8'
p437
F15
sS'4.18'
p438
F3
sS'6.8'
p439
F1
sS'6.4'
p440
F12
sS'4.11'
p441
F6
sS'2.14'
p442
F3
sS'2.13'
p443
F2
sS'2.12'
p444
F24
sS'2.11'
p445
F23
sS'2.10'
p446
F21
sS'5.1'
p447
F8
sS'7.2'
p448
F17
sS'3.14'
p449
F16
sS'5.4'
p450
F13
sS'7.4'
p451
F1
sS'5.2'
p452
F6
sS'4.14'
p453
F21
sS'5.3'
p454
F10
sS'4.20'
p455
F1
sS'4.12'
p456
F11
sS'4.10'
p457
F2
sS'4.21'
p458
F13
sS'4.22'
p459
F5
sS'4.23'
p460
F4
sS'3.9'
p461
F20
sS'4.25'
p462
F1
sS'7.3'
p463
F3
sS'3.18'
p464
F2
sS'7.1'
p465
F2
sS'6.7'
p466
F6
sS'5.6'
p467
F11
sS'6.6'
p468
F19
sS'5.5'
p469
F36
sS'5.7'
p470
F1
sS'3.4'
p471
F1
sS'3.5'
p472
F2
sS'4.13'
p473
F16
sS'6.3'
p474
F18
sS'6.2'
p475
F5
ssS'078-1321398'
p476
(dp477
S'6.7'
p478
F1
sS'6.6'
p479
F24
sS'6.5'
p480
F14
sS'6.4'
p481
F8
sS'6.3'
p482
F5
sS'6.2'
p483
F17
sS'6.1'
p484
F3
sS'6.9'
p485
F5
sS'6.8'
p486
F4
sS'1.10'
p487
F3
sS'1.11'
p488
F6
sS'2.14'
p489
F7
sS'2.13'
p490
F4
sS'2.12'
p491
F2
sS'2.11'
p492
F6
sS'2.10'
p493
F7
sS'3.10'
p494
F2
sS'3.11'
p495
F7
sS'3.12'
p496
F7
sS'3.13'
p497
F6
sS'3.14'
p498
F2
sS'3.15'
p499
F4
sS'3.16'
p500
F7
sS'3.17'
p501
F1
sS'3.6'
p502
F29
sS'3.7'
p503
F9
sS'2.9'
p504
F7
sS'2.8'
p505
F2
sS'3.2'
p506
F1
sS'3.3'
p507
F8
sS'3.1'
p508
F13
sS'2.3'
p509
F1
sS'2.2'
p510
F14
sS'2.1'
p511
F7
sS'2.7'
p512
F2
sS'2.6'
p513
F6
sS'2.5'
p514
F9
sS'2.4'
p515
F29
sS'5.23'
p516
F7
sS'5.22'
p517
F4
sS'5.21'
p518
F2
sS'5.20'
p519
F6
sS'6.13'
p520
F11
sS'6.12'
p521
F1
sS'6.11'
p522
F11
sS'6.10'
p523
F8
sS'6.17'
p524
F1
sS'6.16'
p525
F19
sS'6.15'
p526
F15
sS'6.14'
p527
F11
sS'5.12'
p528
F3
sS'5.13'
p529
F29
sS'5.10'
p530
F3
sS'5.11'
p531
F3
sS'5.16'
p532
F2
sS'5.17'
p533
F2
sS'5.14'
p534
F9
sS'5.15'
p535
F6
sS'5.18'
p536
F7
sS'5.19'
p537
F7
sS'3.4'
p538
F15
sS'3.5'
p539
F2
sS'1.4'
p540
F1
sS'1.5'
p541
F1
sS'1.6'
p542
F6
sS'1.7'
p543
F6
sS'1.1'
p544
F28
sS'1.2'
p545
F8
sS'1.3'
p546
F5
sS'1.8'
p547
F5
sS'1.9'
p548
F1
sS'4.5'
p549
F1
sS'4.4'
p550
F1
sS'5.2'
p551
F17
sS'5.3'
p552
F5
sS'4.1'
p553
F14
sS'5.5'
p554
F14
sS'5.6'
p555
F2
sS'5.7'
p556
F4
sS'5.8'
p557
F4
sS'5.9'
p558
F4
sS'3.8'
p559
F6
sS'3.9'
p560
F2
sS'5.1'
p561
F3
sS'5.4'
p562
F8
sS'4.3'
p563
F8
sS'4.2'
p564
F6
ssS'078-3797219'
p565
(dp566
S'11.1'
p567
F11
sS'7.2'
p568
F3
sS'7.3'
p569
F8
sS'6.5'
p570
F1
sS'7.1'
p571
F4
sS'6.3'
p572
F16
sS'7.7'
p573
F13
sS'6.1'
p574
F10
sS'7.5'
p575
F3
sS'7.8'
p576
F11
sS'7.9'
p577
F10
sS'8.10'
p578
F1
sS'1.16'
p579
F4
sS'1.17'
p580
F2
sS'1.14'
p581
F2
sS'1.15'
p582
F4
sS'1.12'
p583
F3
sS'1.13'
p584
F1
sS'1.10'
p585
F1
sS'1.11'
p586
F3
sS'1.18'
p587
F1
sS'1.19'
p588
F41
sS'11.10'
p589
F13
sS'11.11'
p590
F2
sS'6.7'
p591
F1
sS'6.6'
p592
F2
sS'6.4'
p593
F6
sS'7.6'
p594
F13
sS'6.2'
p595
F3
sS'4.11'
p596
F6
sS'4.10'
p597
F1
sS'4.12'
p598
F1
sS'7.4'
p599
F1
sS'3.6'
p600
F5
sS'3.7'
p601
F2
sS'3.4'
p602
F38
sS'3.5'
p603
F1
sS'3.2'
p604
F4
sS'3.3'
p605
F12
sS'3.1'
p606
F10
sS'2.3'
p607
F2
sS'2.2'
p608
F10
sS'2.1'
p609
F3
sS'3.8'
p610
F4
sS'11.8'
p611
F13
sS'10.1'
p612
F13
sS'10.3'
p613
F12
sS'10.2'
p614
F11
sS'10.5'
p615
F1
sS'10.4'
p616
F1
sS'11.14'
p617
F6
sS'11.15'
p618
F1
sS'11.12'
p619
F2
sS'11.13'
p620
F1
sS'9.10'
p621
F3
sS'9.11'
p622
F2
sS'8.1'
p623
F5
sS'8.3'
p624
F9
sS'8.2'
p625
F4
sS'8.5'
p626
F4
sS'8.4'
p627
F2
sS'8.7'
p628
F12
sS'8.6'
p629
F12
sS'8.9'
p630
F2
sS'8.8'
p631
F1
sS'9.8'
p632
F13
sS'9.9'
p633
F2
sS'9.4'
p634
F9
sS'9.5'
p635
F2
sS'9.6'
p636
F4
sS'9.7'
p637
F13
sS'9.1'
p638
F12
sS'9.2'
p639
F5
sS'9.3'
p640
F4
sS'1.4'
p641
F34
sS'1.5'
p642
F2
sS'1.6'
p643
F1
sS'1.7'
p644
F1
sS'1.1'
p645
F2
sS'1.2'
p646
F9
sS'1.3'
p647
F9
sS'1.8'
p648
F2
sS'1.9'
p649
F2
sS'4.5'
p650
F6
sS'4.4'
p651
F14
sS'5.2'
p652
F25
sS'4.6'
p653
F5
sS'5.4'
p654
F1
sS'11.9'
p655
F12
sS'4.3'
p656
F4
sS'4.2'
p657
F12
sS'11.4'
p658
F16
sS'11.5'
p659
F36
sS'11.6'
p660
F2
sS'11.7'
p661
F1
sS'4.9'
p662
F3
sS'4.8'
p663
F10
sS'11.2'
p664
F21
sS'11.3'
p665
F14
sS'5.1'
p666
F39
sS'4.7'
p667
F3
sS'5.3'
p668
F4
sS'4.1'
p669
F13
sS'1.21'
p670
F10
sS'1.20'
p671
F25
ssS'074-0998972'
p672
(dp673
S'1.4'
p674
F18
sS'1.5'
p675
F19
sS'1.6'
p676
F17
sS'1.7'
p677
F14
sS'1.1'
p678
F16
sS'1.2'
p679
F17
sS'1.3'
p680
F11
sS'3.10'
p681
F2
sS'3.11'
p682
F17
sS'3.12'
p683
F17
sS'1.8'
p684
F13
sS'1.9'
p685
F1
sS'3.6'
p686
F11
sS'3.7'
p687
F10
sS'2.9'
p688
F2
sS'2.8'
p689
F1
sS'3.2'
p690
F13
sS'3.3'
p691
F20
sS'6.1'
p692
F22
sS'3.1'
p693
F19
sS'2.3'
p694
F12
sS'2.2'
p695
F17
sS'2.1'
p696
F46
sS'2.7'
p697
F3
sS'2.6'
p698
F1
sS'2.5'
p699
F2
sS'2.4'
p700
F12
sS'5.1'
p701
F11
sS'5.2'
p702
F15
sS'5.3'
p703
F17
sS'4.1'
p704
F9
sS'5.5'
p705
F10
sS'1.10'
p706
F2
sS'5.7'
p707
F2
sS'6.5'
p708
F1
sS'3.8'
p709
F17
sS'2.19'
p710
F3
sS'2.18'
p711
F2
sS'2.17'
p712
F14
sS'2.16'
p713
F15
sS'2.15'
p714
F18
sS'2.14'
p715
F20
sS'2.13'
p716
F19
sS'2.12'
p717
F12
sS'2.11'
p718
F18
sS'2.10'
p719
F17
sS'6.4'
p720
F36
sS'5.4'
p721
F7
sS'3.9'
p722
F17
sS'5.6'
p723
F5
sS'3.4'
p724
F29
sS'3.5'
p725
F21
sS'6.3'
p726
F25
sS'6.2'
p727
F7
ssS'058-13714734'
p728
(dp729
S'6.7'
p730
F3
sS'6.6'
p731
F3
sS'6.5'
p732
F2
sS'6.4'
p733
F21
sS'6.3'
p734
F21
sS'6.2'
p735
F4
sS'6.1'
p736
F10
sS'6.9'
p737
F4
sS'6.8'
p738
F5
sS'1.10'
p739
F5
sS'1.11'
p740
F9
sS'2.11'
p741
F8
sS'2.10'
p742
F24
sS'3.10'
p743
F3
sS'3.11'
p744
F42
sS'3.12'
p745
F24
sS'3.13'
p746
F8
sS'3.14'
p747
F1
sS'3.15'
p748
F4
sS'3.16'
p749
F4
sS'3.6'
p750
F13
sS'3.7'
p751
F10
sS'2.9'
p752
F42
sS'2.8'
p753
F3
sS'3.2'
p754
F20
sS'3.3'
p755
F16
sS'3.1'
p756
F2
sS'2.3'
p757
F15
sS'2.2'
p758
F19
sS'2.1'
p759
F1
sS'2.7'
p760
F3
sS'2.6'
p761
F1
sS'2.5'
p762
F1
sS'2.4'
p763
F36
sS'5.25'
p764
F9
sS'5.24'
p765
F5
sS'5.23'
p766
F6
sS'5.22'
p767
F3
sS'5.21'
p768
F10
sS'5.20'
p769
F6
sS'6.19'
p770
F2
sS'6.18'
p771
F1
sS'6.13'
p772
F21
sS'6.12'
p773
F13
sS'6.11'
p774
F8
sS'6.10'
p775
F8
sS'6.17'
p776
F20
sS'6.16'
p777
F11
sS'6.15'
p778
F11
sS'6.14'
p779
F7
sS'5.12'
p780
F2
sS'5.13'
p781
F3
sS'5.10'
p782
F15
sS'5.11'
p783
F1
sS'5.16'
p784
F24
sS'5.17'
p785
F8
sS'5.14'
p786
F3
sS'5.15'
p787
F42
sS'5.18'
p788
F4
sS'5.19'
p789
F7
sS'3.4'
p790
F37
sS'3.5'
p791
F1
sS'1.4'
p792
F23
sS'1.5'
p793
F7
sS'1.6'
p794
F1
sS'1.7'
p795
F1
sS'1.1'
p796
F2
sS'1.2'
p797
F2
sS'1.3'
p798
F41
sS'1.8'
p799
F3
sS'1.9'
p800
F6
sS'4.5'
p801
F3
sS'4.4'
p802
F1
sS'4.7'
p803
F4
sS'4.6'
p804
F5
sS'4.1'
p805
F14
sS'5.5'
p806
F9
sS'5.6'
p807
F15
sS'5.7'
p808
F22
sS'5.8'
p809
F18
sS'5.9'
p810
F31
sS'3.8'
p811
F2
sS'3.9'
p812
F3
sS'5.1'
p813
F4
sS'5.2'
p814
F15
sS'5.3'
p815
F26
sS'5.4'
p816
F2
sS'4.3'
p817
F13
sS'4.2'
p818
F11
sS'6.22'
p819
F5
sS'6.23'
p820
F9
sS'6.20'
p821
F3
sS'6.21'
p822
F6
ssS'060-0021651'
p823
(dp824
S'7.10'
p825
F2
sS'7.2'
p826
F1
sS'7.3'
p827
F17
sS'6.4'
p828
F1
sS'6.3'
p829
F8
sS'7.7'
p830
F12
sS'6.1'
p831
F7
sS'7.5'
p832
F18
sS'7.8'
p833
F13
sS'7.9'
p834
F8
sS'8.11'
p835
F13
sS'8.10'
p836
F12
sS'8.13'
p837
F2
sS'8.12'
p838
F8
sS'7.1'
p839
F16
sS'7.6'
p840
F20
sS'6.2'
p841
F21
sS'4.11'
p842
F12
sS'4.10'
p843
F20
sS'4.13'
p844
F8
sS'4.12'
p845
F13
sS'4.15'
p846
F4
sS'7.4'
p847
F13
sS'4.17'
p848
F5
sS'4.16'
p849
F2
sS'4.19'
p850
F6
sS'4.18'
p851
F7
sS'3.6'
p852
F17
sS'3.7'
p853
F1
sS'3.4'
p854
F13
sS'3.5'
p855
F8
sS'3.2'
p856
F6
sS'3.3'
p857
F12
sS'3.1'
p858
F2
sS'2.3'
p859
F11
sS'2.2'
p860
F8
sS'2.1'
p861
F14
sS'2.7'
p862
F13
sS'2.6'
p863
F12
sS'2.5'
p864
F2
sS'2.4'
p865
F1
sS'4.14'
p866
F1
sS'8.1'
p867
F19
sS'8.3'
p868
F7
sS'8.2'
p869
F18
sS'8.5'
p870
F15
sS'8.4'
p871
F1
sS'8.7'
p872
F13
sS'8.6'
p873
F17
sS'8.9'
p874
F20
sS'8.8'
p875
F18
sS'5.12'
p876
F18
sS'5.13'
p877
F20
sS'5.10'
p878
F17
sS'5.11'
p879
F13
sS'5.16'
p880
F8
sS'5.17'
p881
F2
sS'5.14'
p882
F12
sS'5.15'
p883
F13
sS'2.8'
p884
F8
sS'1.4'
p885
F19
sS'1.5'
p886
F11
sS'1.6'
p887
F12
sS'1.7'
p888
F7
sS'1.1'
p889
F16
sS'1.2'
p890
F12
sS'1.3'
p891
F17
sS'1.8'
p892
F1
sS'4.5'
p893
F1
sS'4.4'
p894
F22
sS'4.7'
p895
F17
sS'4.6'
p896
F1
sS'4.1'
p897
F2
sS'5.5'
p898
F13
sS'4.3'
p899
F15
sS'4.2'
p900
F12
sS'5.8'
p901
F3
sS'5.9'
p902
F3
sS'4.9'
p903
F18
sS'4.8'
p904
F13
sS'5.1'
p905
F18
sS'5.2'
p906
F17
sS'5.3'
p907
F12
sS'4.20'
p908
F4
sS'5.4'
p909
F13
sS'5.6'
p910
F9
sS'5.7'
p911
F1
ssS'079-14194071'
p912
(dp913
S'1.4'
p914
F9
sS'1.5'
p915
F9
sS'1.6'
p916
F2
sS'1.7'
p917
F2
sS'1.1'
p918
F2
sS'1.2'
p919
F15
sS'1.3'
p920
F14
sS'3.10'
p921
F10
sS'3.11'
p922
F3
sS'3.12'
p923
F3
sS'3.13'
p924
F2
sS'1.8'
p925
F1
sS'3.15'
p926
F20
sS'3.16'
p927
F5
sS'3.17'
p928
F6
sS'3.6'
p929
F3
sS'3.7'
p930
F16
sS'2.9'
p931
F3
sS'2.8'
p932
F10
sS'3.2'
p933
F1
sS'3.3'
p934
F2
sS'3.1'
p935
F1
sS'2.3'
p936
F1
sS'2.2'
p937
F1
sS'2.1'
p938
F1
sS'2.7'
p939
F10
sS'2.6'
p940
F15
sS'2.5'
p941
F16
sS'2.4'
p942
F3
sS'4.5'
p943
F1
sS'4.4'
p944
F1
sS'5.2'
p945
F9
sS'5.3'
p946
F17
sS'4.1'
p947
F1
sS'5.5'
p948
F29
sS'4.3'
p949
F29
sS'4.2'
p950
F29
sS'3.19'
p951
F12
sS'5.9'
p952
F2
sS'3.21'
p953
F12
sS'3.20'
p954
F2
sS'3.22'
p955
F11
sS'3.8'
p956
F15
sS'2.19'
p957
F11
sS'2.18'
p958
F1
sS'2.17'
p959
F11
sS'2.16'
p960
F8
sS'2.15'
p961
F5
sS'2.14'
p962
F4
sS'2.13'
p963
F19
sS'2.12'
p964
F20
sS'2.11'
p965
F2
sS'2.10'
p966
F3
sS'5.1'
p967
F1
sS'3.14'
p968
F21
sS'5.12'
p969
F2
sS'5.13'
p970
F2
sS'5.10'
p971
F30
sS'5.11'
p972
F30
sS'5.4'
p973
F18
sS'3.9'
p974
F10
sS'3.18'
p975
F9
sS'5.6'
p976
F16
sS'5.7'
p977
F22
sS'3.4'
p978
F2
sS'5.8'
p979
F1
sS'3.5'
p980
F2
sS'2.20'
p981
F10
ssS'068-16207900'
p982
(dp983
S'6.6'
p984
F6
sS'6.5'
p985
F1
sS'6.4'
p986
F1
sS'6.3'
p987
F1
sS'6.2'
p988
F6
sS'6.1'
p989
F8
sS'4.33'
p990
F1
sS'4.32'
p991
F2
sS'4.31'
p992
F1
sS'4.30'
p993
F1
sS'4.35'
p994
F1
sS'4.34'
p995
F1
sS'1.14'
p996
F2
sS'1.15'
p997
F10
sS'1.12'
p998
F7
sS'1.13'
p999
F2
sS'1.10'
p1000
F4
sS'1.11'
p1001
F10
sS'2.19'
p1002
F3
sS'2.18'
p1003
F3
sS'2.17'
p1004
F3
sS'2.16'
p1005
F3
sS'2.15'
p1006
F1
sS'2.14'
p1007
F3
sS'2.13'
p1008
F13
sS'2.12'
p1009
F10
sS'2.11'
p1010
F12
sS'2.10'
p1011
F6
sS'2.22'
p1012
F1
sS'2.23'
p1013
F1
sS'2.20'
p1014
F1
sS'2.21'
p1015
F5
sS'4.11'
p1016
F16
sS'4.10'
p1017
F5
sS'4.13'
p1018
F1
sS'4.12'
p1019
F14
sS'4.15'
p1020
F7
sS'4.14'
p1021
F17
sS'4.17'
p1022
F1
sS'4.16'
p1023
F1
sS'4.19'
p1024
F1
sS'4.18'
p1025
F2
sS'5.20'
p1026
F11
sS'3.6'
p1027
F12
sS'3.7'
p1028
F7
sS'2.9'
p1029
F14
sS'2.8'
p1030
F16
sS'3.2'
p1031
F11
sS'3.3'
p1032
F10
sS'3.1'
p1033
F14
sS'2.3'
p1034
F5
sS'2.2'
p1035
F9
sS'2.1'
p1036
F8
sS'2.7'
p1037
F13
sS'2.6'
p1038
F11
sS'2.5'
p1039
F14
sS'2.4'
p1040
F16
sS'5.26'
p1041
F1
sS'5.25'
p1042
F3
sS'5.24'
p1043
F1
sS'5.23'
p1044
F1
sS'5.22'
p1045
F5
sS'5.21'
p1046
F8
sS'4.21'
p1047
F5
sS'5.12'
p1048
F9
sS'5.13'
p1049
F10
sS'5.10'
p1050
F5
sS'5.11'
p1051
F10
sS'5.16'
p1052
F8
sS'5.17'
p1053
F11
sS'5.14'
p1054
F10
sS'5.15'
p1055
F12
sS'5.18'
p1056
F9
sS'5.19'
p1057
F12
sS'3.4'
p1058
F12
sS'3.5'
p1059
F11
sS'1.4'
p1060
F13
sS'1.5'
p1061
F16
sS'1.6'
p1062
F6
sS'1.7'
p1063
F1
sS'1.1'
p1064
F8
sS'1.2'
p1065
F4
sS'1.3'
p1066
F15
sS'1.8'
p1067
F2
sS'1.9'
p1068
F4
sS'4.5'
p1069
F13
sS'4.4'
p1070
F13
sS'5.2'
p1071
F2
sS'5.3'
p1072
F1
sS'5.4'
p1073
F6
sS'5.5'
p1074
F1
sS'5.6'
p1075
F12
sS'4.2'
p1076
F5
sS'5.8'
p1077
F14
sS'5.9'
p1078
F14
sS'4.9'
p1079
F9
sS'4.8'
p1080
F8
sS'5.1'
p1081
F8
sS'4.7'
p1082
F1
sS'4.28'
p1083
F1
sS'4.29'
p1084
F1
sS'4.6'
p1085
F4
sS'4.20'
p1086
F3
sS'4.1'
p1087
F1
sS'4.22'
p1088
F5
sS'4.23'
p1089
F11
sS'4.24'
p1090
F8
sS'4.25'
p1091
F3
sS'4.26'
p1092
F3
sS'4.27'
p1093
F11
sS'4.3'
p1094
F13
sS'5.7'
p1095
F3
ssS'026-4380722'
p1096
(dp1097
S'1.4'
p1098
F18
sS'1.5'
p1099
F15
sS'1.6'
p1100
F13
sS'1.7'
p1101
F28
sS'1.1'
p1102
F12
sS'1.2'
p1103
F20
sS'1.3'
p1104
F18
sS'3.10'
p1105
F14
sS'3.11'
p1106
F29
sS'3.12'
p1107
F4
sS'3.13'
p1108
F2
sS'1.8'
p1109
F3
sS'1.9'
p1110
F1
sS'3.16'
p1111
F6
sS'3.17'
p1112
F8
sS'3.6'
p1113
F21
sS'3.7'
p1114
F19
sS'2.9'
p1115
F29
sS'2.8'
p1116
F14
sS'3.2'
p1117
F3
sS'3.3'
p1118
F4
sS'3.1'
p1119
F8
sS'2.3'
p1120
F13
sS'2.2'
p1121
F11
sS'2.1'
p1122
F3
sS'2.7'
p1123
F16
sS'2.6'
p1124
F19
sS'2.5'
p1125
F19
sS'2.4'
p1126
F21
sS'1.16'
p1127
F3
sS'4.4'
p1128
F5
sS'1.14'
p1129
F3
sS'1.15'
p1130
F7
sS'1.12'
p1131
F5
sS'1.13'
p1132
F7
sS'1.10'
p1133
F1
sS'1.11'
p1134
F1
sS'3.19'
p1135
F8
sS'5.9'
p1136
F16
sS'5.6'
p1137
F1
sS'3.20'
p1138
F4
sS'3.8'
p1139
F19
sS'5.7'
p1140
F3
sS'2.18'
p1141
F4
sS'2.17'
p1142
F8
sS'2.16'
p1143
F4
sS'2.15'
p1144
F8
sS'2.14'
p1145
F6
sS'2.13'
p1146
F2
sS'2.12'
p1147
F2
sS'2.11'
p1148
F2
sS'2.10'
p1149
F4
sS'4.5'
p1150
F7
sS'5.1'
p1151
F11
sS'3.14'
p1152
F2
sS'5.11'
p1153
F6
sS'5.4'
p1154
F9
sS'5.2'
p1155
F16
sS'3.15'
p1156
F2
sS'5.12'
p1157
F8
sS'5.10'
p1158
F14
sS'5.3'
p1159
F17
sS'4.1'
p1160
F19
sS'3.9'
p1161
F16
sS'3.18'
p1162
F4
sS'4.3'
p1163
F14
sS'5.5'
p1164
F7
sS'4.2'
p1165
F16
sS'3.4'
p1166
F12
sS'5.8'
p1167
F19
sS'3.5'
p1168
F13
ssS'074-6324762'
p1169
(dp1170
S'1.4'
p1171
F8
sS'1.5'
p1172
F6
sS'1.6'
p1173
F15
sS'1.7'
p1174
F8
sS'1.1'
p1175
F3
sS'1.2'
p1176
F12
sS'1.3'
p1177
F14
sS'3.10'
p1178
F33
sS'3.11'
p1179
F4
sS'3.12'
p1180
F11
sS'3.13'
p1181
F20
sS'1.8'
p1182
F7
sS'1.9'
p1183
F19
sS'3.16'
p1184
F3
sS'3.17'
p1185
F3
sS'3.6'
p1186
F14
sS'3.7'
p1187
F4
sS'2.9'
p1188
F5
sS'2.8'
p1189
F3
sS'3.2'
p1190
F12
sS'3.3'
p1191
F1
sS'3.1'
p1192
F4
sS'2.3'
p1193
F19
sS'2.2'
p1194
F1
sS'2.1'
p1195
F4
sS'2.7'
p1196
F1
sS'2.6'
p1197
F33
sS'2.5'
p1198
F22
sS'2.4'
p1199
F18
sS'4.5'
p1200
F16
sS'4.4'
p1201
F36
sS'4.7'
p1202
F13
sS'4.6'
p1203
F9
sS'1.12'
p1204
F1
sS'1.13'
p1205
F1
sS'1.10'
p1206
F6
sS'1.11'
p1207
F11
sS'3.19'
p1208
F1
sS'4.9'
p1209
F8
sS'4.8'
p1210
F15
sS'5.6'
p1211
F6
sS'3.8'
p1212
F11
sS'5.7'
p1213
F9
sS'4.11'
p1214
F1
sS'3.9'
p1215
F29
sS'2.10'
p1216
F4
sS'5.1'
p1217
F36
sS'3.14'
p1218
F1
sS'5.4'
p1219
F7
sS'5.2'
p1220
F7
sS'3.15'
p1221
F2
sS'4.14'
p1222
F4
sS'5.3'
p1223
F1
sS'4.12'
p1224
F3
sS'4.10'
p1225
F22
sS'4.1'
p1226
F2
sS'3.18'
p1227
F4
sS'4.3'
p1228
F9
sS'5.5'
p1229
F10
sS'4.2'
p1230
F5
sS'3.4'
p1231
F4
sS'5.8'
p1232
F4
sS'3.5'
p1233
F8
sS'4.13'
p1234
F5
ssS'078-8112187'
p1235
(dp1236
S'1.4'
p1237
F1
sS'1.5'
p1238
F1
sS'1.6'
p1239
F3
sS'1.7'
p1240
F5
sS'7.10'
p1241
F5
sS'1.1'
p1242
F14
sS'1.2'
p1243
F2
sS'1.3'
p1244
F1
sS'7.5'
p1245
F7
sS'1.8'
p1246
F4
sS'1.9'
p1247
F3
sS'6.7'
p1248
F1
sS'6.6'
p1249
F13
sS'2.9'
p1250
F4
sS'2.8'
p1251
F2
sS'3.2'
p1252
F7
sS'3.3'
p1253
F1
sS'6.1'
p1254
F31
sS'3.1'
p1255
F2
sS'2.3'
p1256
F1
sS'2.2'
p1257
F12
sS'2.1'
p1258
F1
sS'7.9'
p1259
F4
sS'2.7'
p1260
F2
sS'2.6'
p1261
F2
sS'2.5'
p1262
F3
sS'2.4'
p1263
F15
sS'5.6'
p1264
F1
sS'4.4'
p1265
F2
sS'5.2'
p1266
F6
sS'5.3'
p1267
F2
sS'4.1'
p1268
F5
sS'5.5'
p1269
F2
sS'1.10'
p1270
F1
sS'4.2'
p1271
F2
sS'5.8'
p1272
F12
sS'5.9'
p1273
F8
sS'7.13'
p1274
F1
sS'7.8'
p1275
F2
sS'6.9'
p1276
F4
sS'7.7'
p1277
F8
sS'2.18'
p1278
F13
sS'2.17'
p1279
F8
sS'2.16'
p1280
F12
sS'2.15'
p1281
F8
sS'2.14'
p1282
F1
sS'2.13'
p1283
F2
sS'2.12'
p1284
F4
sS'2.11'
p1285
F5
sS'2.10'
p1286
F6
sS'6.8'
p1287
F1
sS'7.16'
p1288
F15
sS'7.17'
p1289
F19
sS'5.1'
p1290
F30
sS'7.18'
p1291
F1
sS'6.10'
p1292
F6
sS'7.4'
p1293
F1
sS'7.11'
p1294
F8
sS'5.10'
p1295
F13
sS'5.4'
p1296
F8
sS'7.1'
p1297
F31
sS'7.2'
p1298
F4
sS'7.14'
p1299
F11
sS'4.3'
p1300
F8
sS'7.3'
p1301
F19
sS'7.12'
p1302
F11
sS'5.7'
p1303
F8
sS'6.5'
p1304
F1
sS'7.15'
p1305
F11
sS'6.4'
p1306
F6
sS'6.3'
p1307
F5
sS'7.6'
p1308
F2
sS'6.2'
p1309
F3
ssS'075-15948761'
p1310
(dp1311
S'6.7'
p1312
F1
sS'6.6'
p1313
F7
sS'6.5'
p1314
F23
sS'6.4'
p1315
F8
sS'6.3'
p1316
F32
sS'6.2'
p1317
F14
sS'6.1'
p1318
F10
sS'6.9'
p1319
F2
sS'6.8'
p1320
F1
sS'2.11'
p1321
F10
sS'2.10'
p1322
F6
sS'7.2'
p1323
F3
sS'7.3'
p1324
F6
sS'7.1'
p1325
F16
sS'4.11'
p1326
F3
sS'4.10'
p1327
F5
sS'4.13'
p1328
F1
sS'4.12'
p1329
F2
sS'4.15'
p1330
F5
sS'4.14'
p1331
F3
sS'4.16'
p1332
F4
sS'2.9'
p1333
F6
sS'2.8'
p1334
F4
sS'3.2'
p1335
F23
sS'3.1'
p1336
F20
sS'2.3'
p1337
F15
sS'2.2'
p1338
F2
sS'2.1'
p1339
F3
sS'2.7'
p1340
F1
sS'2.6'
p1341
F24
sS'2.5'
p1342
F4
sS'2.4'
p1343
F4
sS'9.22'
p1344
F2
sS'9.21'
p1345
F4
sS'9.20'
p1346
F4
sS'9.18'
p1347
F5
sS'9.19'
p1348
F4
sS'9.16'
p1349
F3
sS'9.17'
p1350
F3
sS'9.14'
p1351
F2
sS'9.15'
p1352
F2
sS'9.12'
p1353
F2
sS'9.13'
p1354
F30
sS'9.10'
p1355
F14
sS'9.11'
p1356
F32
sS'8.1'
p1357
F1
sS'8.3'
p1358
F19
sS'8.2'
p1359
F23
sS'8.5'
p1360
F2
sS'8.4'
p1361
F19
sS'8.7'
p1362
F21
sS'8.6'
p1363
F2
sS'8.8'
p1364
F24
sS'9.8'
p1365
F2
sS'9.9'
p1366
F10
sS'9.4'
p1367
F42
sS'9.5'
p1368
F7
sS'9.6'
p1369
F18
sS'9.7'
p1370
F2
sS'9.1'
p1371
F13
sS'9.2'
p1372
F9
sS'9.3'
p1373
F53
sS'6.19'
p1374
F2
sS'6.18'
p1375
F4
sS'6.13'
p1376
F3
sS'6.12'
p1377
F2
sS'6.11'
p1378
F2
sS'6.10'
p1379
F30
sS'6.17'
p1380
F4
sS'6.16'
p1381
F4
sS'6.15'
p1382
F5
sS'6.14'
p1383
F3
sS'5.12'
p1384
F3
sS'5.13'
p1385
F3
sS'5.10'
p1386
F4
sS'5.11'
p1387
F3
sS'5.14'
p1388
F1
sS'1.4'
p1389
F20
sS'1.5'
p1390
F3
sS'1.1'
p1391
F2
sS'1.2'
p1392
F1
sS'1.3'
p1393
F20
sS'4.5'
p1394
F1
sS'4.4'
p1395
F15
sS'4.7'
p1396
F12
sS'4.6'
p1397
F29
sS'4.1'
p1398
F21
sS'5.5'
p1399
F30
sS'4.3'
p1400
F3
sS'4.2'
p1401
F24
sS'5.8'
p1402
F2
sS'5.9'
p1403
F2
sS'4.9'
p1404
F5
sS'4.8'
p1405
F4
sS'7.4'
p1406
F4
sS'5.1'
p1407
F9
sS'5.2'
p1408
F13
sS'5.3'
p1409
F31
sS'5.4'
p1410
F2
sS'5.6'
p1411
F1
sS'5.7'
p1412
F1
ssS'079-4736087'
p1413
(dp1414
S'1.4'
p1415
F2
sS'1.5'
p1416
F1
sS'4.13'
p1417
F4
sS'4.12'
p1418
F6
sS'4.15'
p1419
F3
sS'1.1'
p1420
F1
sS'1.2'
p1421
F24
sS'1.3'
p1422
F16
sS'3.10'
p1423
F1
sS'3.11'
p1424
F11
sS'3.12'
p1425
F10
sS'3.6'
p1426
F4
sS'3.7'
p1427
F5
sS'3.4'
p1428
F20
sS'3.5'
p1429
F19
sS'3.2'
p1430
F14
sS'3.3'
p1431
F1
sS'6.1'
p1432
F25
sS'3.1'
p1433
F25
sS'2.3'
p1434
F31
sS'2.2'
p1435
F26
sS'2.1'
p1436
F1
sS'2.7'
p1437
F25
sS'2.6'
p1438
F2
sS'2.5'
p1439
F1
sS'2.4'
p1440
F36
sS'4.5'
p1441
F2
sS'4.4'
p1442
F3
sS'4.7'
p1443
F22
sS'4.6'
p1444
F44
sS'4.1'
p1445
F2
sS'5.5'
p1446
F16
sS'4.3'
p1447
F17
sS'4.2'
p1448
F25
sS'5.8'
p1449
F21
sS'5.9'
p1450
F1
sS'4.16'
p1451
F3
sS'4.9'
p1452
F1
sS'4.8'
p1453
F23
sS'3.8'
p1454
F8
sS'4.11'
p1455
F1
sS'3.9'
p1456
F11
sS'2.10'
p1457
F2
sS'5.1'
p1458
F2
sS'5.11'
p1459
F6
sS'5.2'
p1460
F25
sS'4.14'
p1461
F2
sS'5.13'
p1462
F4
sS'5.10'
p1463
F2
sS'5.3'
p1464
F17
sS'4.10'
p1465
F1
sS'5.4'
p1466
F8
sS'5.12'
p1467
F4
sS'5.6'
p1468
F1
sS'5.7'
p1469
F1
sS'2.9'
p1470
F3
sS'2.8'
p1471
F17
sS'6.3'
p1472
F53
sS'6.2'
p1473
F28
ssS'107-16164699'
p1474
(dp1475
S'1.4'
p1476
F23
sS'1.5'
p1477
F6
sS'1.6'
p1478
F6
sS'1.7'
p1479
F1
sS'1.1'
p1480
F24
sS'1.2'
p1481
F8
sS'1.3'
p1482
F28
sS'3.10'
p1483
F15
sS'3.11'
p1484
F10
sS'3.12'
p1485
F9
sS'3.13'
p1486
F6
sS'1.8'
p1487
F2
sS'1.9'
p1488
F3
sS'3.16'
p1489
F12
sS'3.17'
p1490
F11
sS'3.6'
p1491
F7
sS'3.7'
p1492
F6
sS'3.4'
p1493
F4
sS'2.8'
p1494
F1
sS'3.2'
p1495
F5
sS'3.3'
p1496
F11
sS'6.1'
p1497
F2
sS'3.1'
p1498
F15
sS'2.3'
p1499
F1
sS'2.2'
p1500
F13
sS'2.1'
p1501
F5
sS'2.7'
p1502
F2
sS'2.6'
p1503
F2
sS'2.5'
p1504
F7
sS'2.4'
p1505
F5
sS'4.5'
p1506
F13
sS'4.4'
p1507
F9
sS'4.7'
p1508
F4
sS'4.6'
p1509
F40
sS'4.1'
p1510
F4
sS'5.5'
p1511
F8
sS'1.10'
p1512
F1
sS'4.2'
p1513
F8
sS'5.8'
p1514
F2
sS'5.9'
p1515
F3
sS'4.9'
p1516
F1
sS'4.8'
p1517
F6
sS'5.6'
p1518
F17
sS'3.8'
p1519
F8
sS'4.11'
p1520
F3
sS'3.9'
p1521
F12
sS'5.1'
p1522
F18
sS'3.14'
p1523
F1
sS'5.2'
p1524
F40
sS'3.15'
p1525
F1
sS'6.4'
p1526
F2
sS'5.10'
p1527
F1
sS'5.3'
p1528
F20
sS'4.12'
p1529
F1
sS'4.10'
p1530
F3
sS'5.4'
p1531
F1
sS'3.18'
p1532
F4
sS'7.1'
p1533
F1
sS'6.7'
p1534
F1
sS'4.3'
p1535
F7
sS'6.6'
p1536
F4
sS'5.7'
p1537
F1
sS'6.5'
p1538
F2
sS'3.5'
p1539
F3
sS'6.3'
p1540
F8
sS'6.2'
p1541
F6
ssS'070-4154814'
p1542
(dp1543
S'6.7'
p1544
F15
sS'6.6'
p1545
F5
sS'6.5'
p1546
F7
sS'6.4'
p1547
F10
sS'6.3'
p1548
F16
sS'6.2'
p1549
F10
sS'6.1'
p1550
F20
sS'6.9'
p1551
F9
sS'6.8'
p1552
F6
sS'2.17'
p1553
F13
sS'2.16'
p1554
F8
sS'2.15'
p1555
F12
sS'2.14'
p1556
F8
sS'2.13'
p1557
F1
sS'2.12'
p1558
F5
sS'2.11'
p1559
F11
sS'2.10'
p1560
F44
sS'3.10'
p1561
F1
sS'3.11'
p1562
F1
sS'3.12'
p1563
F23
sS'3.13'
p1564
F15
sS'3.14'
p1565
F4
sS'3.15'
p1566
F17
sS'3.16'
p1567
F1
sS'3.17'
p1568
F1
sS'3.6'
p1569
F8
sS'3.7'
p1570
F8
sS'2.9'
p1571
F1
sS'2.8'
p1572
F1
sS'3.2'
p1573
F11
sS'3.3'
p1574
F5
sS'3.1'
p1575
F44
sS'2.3'
p1576
F19
sS'2.2'
p1577
F21
sS'2.1'
p1578
F10
sS'2.7'
p1579
F32
sS'2.6'
p1580
F18
sS'2.5'
p1581
F27
sS'2.4'
p1582
F22
sS'6.19'
p1583
F35
sS'6.18'
p1584
F11
sS'6.13'
p1585
F2
sS'6.12'
p1586
F1
sS'6.11'
p1587
F5
sS'6.10'
p1588
F8
sS'6.17'
p1589
F11
sS'6.16'
p1590
F15
sS'6.15'
p1591
F14
sS'6.14'
p1592
F2
sS'5.12'
p1593
F2
sS'5.13'
p1594
F1
sS'5.10'
p1595
F35
sS'5.11'
p1596
F6
sS'5.16'
p1597
F8
sS'5.17'
p1598
F13
sS'5.14'
p1599
F8
sS'5.15'
p1600
F12
sS'3.4'
p1601
F6
sS'3.5'
p1602
F21
sS'1.1'
p1603
F43
sS'1.2'
p1604
F10
sS'1.3'
p1605
F4
sS'4.5'
p1606
F34
sS'4.4'
p1607
F10
sS'4.7'
p1608
F1
sS'4.6'
p1609
F5
sS'4.1'
p1610
F13
sS'5.5'
p1611
F1
sS'4.3'
p1612
F10
sS'4.2'
p1613
F14
sS'5.8'
p1614
F11
sS'5.9'
p1615
F11
sS'3.8'
p1616
F16
sS'3.9'
p1617
F31
sS'5.1'
p1618
F19
sS'5.2'
p1619
F9
sS'5.3'
p1620
F15
sS'5.4'
p1621
F1
sS'5.6'
p1622
F14
sS'5.7'
p1623
F15
sS'6.26'
p1624
F14
sS'6.24'
p1625
F13
sS'6.25'
p1626
F9
sS'6.22'
p1627
F2
sS'6.23'
p1628
F9
sS'6.20'
p1629
F6
sS'6.21'
p1630
F2
ssS'061-10140940'
p1631
(dp1632
S'6.7'
p1633
F3
sS'6.6'
p1634
F2
sS'6.5'
p1635
F14
sS'6.4'
p1636
F18
sS'6.3'
p1637
F14
sS'6.2'
p1638
F2
sS'6.1'
p1639
F13
sS'6.9'
p1640
F13
sS'6.8'
p1641
F8
sS'1.12'
p1642
F1
sS'1.10'
p1643
F12
sS'1.11'
p1644
F3
sS'2.17'
p1645
F2
sS'2.16'
p1646
F4
sS'2.15'
p1647
F13
sS'2.14'
p1648
F17
sS'2.13'
p1649
F30
sS'2.12'
p1650
F16
sS'2.11'
p1651
F10
sS'2.10'
p1652
F16
sS'4.11'
p1653
F31
sS'4.10'
p1654
F6
sS'4.13'
p1655
F27
sS'4.12'
p1656
F10
sS'4.15'
p1657
F10
sS'4.14'
p1658
F16
sS'4.17'
p1659
F30
sS'4.16'
p1660
F16
sS'4.19'
p1661
F13
sS'4.18'
p1662
F17
sS'3.6'
p1663
F1
sS'3.7'
p1664
F6
sS'2.9'
p1665
F27
sS'2.8'
p1666
F10
sS'3.2'
p1667
F4
sS'3.3'
p1668
F3
sS'3.1'
p1669
F13
sS'2.3'
p1670
F13
sS'2.2'
p1671
F16
sS'2.1'
p1672
F9
sS'2.7'
p1673
F31
sS'2.6'
p1674
F6
sS'2.5'
p1675
F1
sS'2.4'
p1676
F14
sS'4.21'
p1677
F2
sS'6.19'
p1678
F8
sS'6.18'
p1679
F5
sS'6.13'
p1680
F2
sS'6.12'
p1681
F9
sS'6.11'
p1682
F4
sS'6.10'
p1683
F4
sS'6.17'
p1684
F1
sS'6.16'
p1685
F2
sS'6.15'
p1686
F7
sS'6.14'
p1687
F2
sS'5.12'
p1688
F2
sS'5.13'
p1689
F7
sS'5.10'
p1690
F9
sS'5.11'
p1691
F2
sS'5.14'
p1692
F2
sS'3.4'
p1693
F8
sS'3.5'
p1694
F1
sS'1.4'
p1695
F26
sS'1.5'
p1696
F15
sS'1.6'
p1697
F9
sS'1.7'
p1698
F15
sS'1.1'
p1699
F5
sS'1.2'
p1700
F30
sS'1.3'
p1701
F9
sS'1.8'
p1702
F29
sS'1.9'
p1703
F16
sS'4.5'
p1704
F17
sS'4.4'
p1705
F3
sS'4.7'
p1706
F17
sS'4.6'
p1707
F13
sS'5.4'
p1708
F1
sS'5.5'
p1709
F2
sS'5.6'
p1710
F7
sS'5.7'
p1711
F13
sS'5.8'
p1712
F4
sS'5.9'
p1713
F4
sS'4.9'
p1714
F1
sS'4.8'
p1715
F1
sS'3.8'
p1716
F1
sS'5.1'
p1717
F13
sS'5.2'
p1718
F17
sS'5.3'
p1719
F13
sS'4.20'
p1720
F4
sS'4.1'
p1721
F5
sS'4.22'
p1722
F1
sS'4.23'
p1723
F3
sS'4.24'
p1724
F5
sS'4.25'
p1725
F2
sS'4.26'
p1726
F2
sS'4.27'
p1727
F4
sS'4.3'
p1728
F2
sS'4.2'
p1729
F8
sS'6.20'
p1730
F5
sS'6.21'
p1731
F10
ssS'074-14150913'
p1732
(dp1733
S'7.10'
p1734
F1
sS'1.1'
p1735
F21
sS'1.2'
p1736
F25
sS'1.3'
p1737
F13
sS'3.10'
p1738
F5
sS'7.5'
p1739
F1
sS'7.8'
p1740
F1
sS'3.6'
p1741
F2
sS'3.7'
p1742
F1
sS'2.9'
p1743
F8
sS'2.8'
p1744
F8
sS'3.2'
p1745
F26
sS'3.3'
p1746
F14
sS'6.1'
p1747
F20
sS'3.1'
p1748
F22
sS'2.3'
p1749
F12
sS'2.2'
p1750
F14
sS'2.1'
p1751
F5
sS'7.9'
p1752
F11
sS'2.7'
p1753
F1
sS'2.6'
p1754
F2
sS'2.5'
p1755
F1
sS'2.4'
p1756
F7
sS'8.1'
p1757
F3
sS'5.1'
p1758
F1
sS'5.2'
p1759
F19
sS'5.3'
p1760
F3
sS'4.1'
p1761
F31
sS'5.5'
p1762
F2
sS'5.6'
p1763
F13
sS'5.7'
p1764
F1
sS'5.8'
p1765
F11
sS'5.9'
p1766
F1
sS'6.9'
p1767
F5
sS'6.5'
p1768
F12
sS'3.8'
p1769
F4
sS'7.7'
p1770
F13
sS'2.17'
p1771
F1
sS'2.16'
p1772
F8
sS'2.15'
p1773
F14
sS'2.14'
p1774
F1
sS'2.13'
p1775
F2
sS'2.12'
p1776
F3
sS'2.11'
p1777
F8
sS'2.10'
p1778
F6
sS'6.8'
p1779
F3
sS'7.2'
p1780
F12
sS'6.10'
p1781
F4
sS'7.4'
p1782
F6
sS'6.4'
p1783
F7
sS'5.4'
p1784
F1
sS'3.9'
p1785
F1
sS'7.3'
p1786
F13
sS'7.1'
p1787
F1
sS'6.7'
p1788
F1
sS'6.6'
p1789
F1
sS'3.4'
p1790
F14
sS'3.5'
p1791
F2
sS'6.3'
p1792
F1
sS'7.6'
p1793
F2
sS'6.2'
p1794
F14
ssS'060-4302525'
p1795
(dp1796
S'1.4'
p1797
F11
sS'1.5'
p1798
F27
sS'1.6'
p1799
F6
sS'1.7'
p1800
F4
sS'1.1'
p1801
F14
sS'1.2'
p1802
F22
sS'1.3'
p1803
F16
sS'3.10'
p1804
F9
sS'3.11'
p1805
F21
sS'3.12'
p1806
F5
sS'3.13'
p1807
F2
sS'1.8'
p1808
F8
sS'1.9'
p1809
F20
sS'3.6'
p1810
F12
sS'3.7'
p1811
F28
sS'3.4'
p1812
F23
sS'3.5'
p1813
F17
sS'3.2'
p1814
F4
sS'3.3'
p1815
F15
sS'6.1'
p1816
F4
sS'3.1'
p1817
F9
sS'2.3'
p1818
F5
sS'2.2'
p1819
F8
sS'2.1'
p1820
F8
sS'2.7'
p1821
F1
sS'2.6'
p1822
F12
sS'2.5'
p1823
F15
sS'2.4'
p1824
F12
sS'4.5'
p1825
F6
sS'4.4'
p1826
F3
sS'4.7'
p1827
F3
sS'4.6'
p1828
F7
sS'1.12'
p1829
F1
sS'5.5'
p1830
F16
sS'1.10'
p1831
F4
sS'1.11'
p1832
F1
sS'5.8'
p1833
F4
sS'5.9'
p1834
F7
sS'8.5'
p1835
F2
sS'4.9'
p1836
F1
sS'4.8'
p1837
F4
sS'5.6'
p1838
F15
sS'3.8'
p1839
F7
sS'5.7'
p1840
F3
sS'6.4'
p1841
F23
sS'7.4'
p1842
F1
sS'3.9'
p1843
F5
sS'8.3'
p1844
F1
sS'8.1'
p1845
F13
sS'8.9'
p1846
F1
sS'5.1'
p1847
F13
sS'5.4'
p1848
F1
sS'5.2'
p1849
F28
sS'5.12'
p1850
F5
sS'5.13'
p1851
F8
sS'5.10'
p1852
F8
sS'5.3'
p1853
F1
sS'5.16'
p1854
F10
sS'5.14'
p1855
F9
sS'5.15'
p1856
F9
sS'4.1'
p1857
F15
sS'8.4'
p1858
F5
sS'7.1'
p1859
F11
sS'7.2'
p1860
F6
sS'8.7'
p1861
F24
sS'4.3'
p1862
F2
sS'8.6'
p1863
F10
sS'7.3'
p1864
F7
sS'4.2'
p1865
F14
sS'6.5'
p1866
F1
sS'8.2'
p1867
F11
sS'5.11'
p1868
F4
sS'8.8'
p1869
F2
sS'6.3'
p1870
F9
sS'6.2'
p1871
F1
ssS'078-15693133'
p1872
(dp1873
S'1.4'
p1874
F8
sS'1.5'
p1875
F1
sS'1.6'
p1876
F1
sS'4.12'
p1877
F1
sS'4.15'
p1878
F11
sS'1.1'
p1879
F16
sS'1.2'
p1880
F27
sS'1.3'
p1881
F9
sS'3.10'
p1882
F1
sS'3.11'
p1883
F3
sS'3.12'
p1884
F8
sS'3.13'
p1885
F1
sS'4.13'
p1886
F7
sS'3.6'
p1887
F4
sS'3.7'
p1888
F1
sS'2.9'
p1889
F21
sS'2.8'
p1890
F5
sS'3.2'
p1891
F6
sS'3.3'
p1892
F1
sS'3.1'
p1893
F9
sS'2.3'
p1894
F10
sS'2.2'
p1895
F28
sS'2.1'
p1896
F17
sS'2.7'
p1897
F21
sS'2.6'
p1898
F11
sS'2.5'
p1899
F11
sS'2.4'
p1900
F22
sS'4.5'
p1901
F9
sS'4.4'
p1902
F10
sS'4.7'
p1903
F11
sS'4.6'
p1904
F1
sS'4.1'
p1905
F23
sS'5.5'
p1906
F23
sS'4.3'
p1907
F1
sS'4.2'
p1908
F12
sS'5.8'
p1909
F11
sS'5.9'
p1910
F10
sS'4.16'
p1911
F1
sS'4.9'
p1912
F17
sS'4.8'
p1913
F8
sS'5.20'
p1914
F2
sS'3.8'
p1915
F1
sS'2.19'
p1916
F1
sS'2.18'
p1917
F1
sS'2.17'
p1918
F1
sS'2.16'
p1919
F4
sS'2.15'
p1920
F1
sS'2.14'
p1921
F1
sS'2.13'
p1922
F1
sS'2.12'
p1923
F7
sS'2.11'
p1924
F10
sS'2.10'
p1925
F12
sS'5.1'
p1926
F23
sS'5.11'
p1927
F11
sS'5.2'
p1928
F27
sS'4.14'
p1929
F1
sS'5.13'
p1930
F18
sS'5.10'
p1931
F2
sS'5.3'
p1932
F9
sS'5.16'
p1933
F2
sS'5.17'
p1934
F8
sS'5.14'
p1935
F21
sS'5.15'
p1936
F2
sS'4.10'
p1937
F20
sS'5.4'
p1938
F1
sS'5.18'
p1939
F2
sS'5.19'
p1940
F12
sS'3.9'
p1941
F1
sS'5.12'
p1942
F8
sS'5.6'
p1943
F12
sS'5.7'
p1944
F2
sS'3.4'
p1945
F1
sS'3.5'
p1946
F1
sS'4.11'
p1947
F1
sS'2.22'
p1948
F8
sS'2.23'
p1949
F1
sS'2.20'
p1950
F1
sS'2.21'
p1951
F3
ssS'078-6832141'
p1952
(dp1953
S'7.2'
p1954
F2
sS'7.3'
p1955
F12
sS'6.5'
p1956
F2
sS'6.4'
p1957
F1
sS'6.3'
p1958
F1
sS'6.2'
p1959
F10
sS'6.1'
p1960
F18
sS'8.15'
p1961
F2
sS'8.14'
p1962
F1
sS'8.17'
p1963
F16
sS'8.16'
p1964
F12
sS'8.11'
p1965
F1
sS'8.10'
p1966
F1
sS'6.9'
p1967
F7
sS'6.8'
p1968
F4
sS'6.7'
p1969
F6
sS'6.6'
p1970
F5
sS'7.1'
p1971
F5
sS'4.11'
p1972
F8
sS'4.10'
p1973
F2
sS'4.13'
p1974
F4
sS'4.12'
p1975
F7
sS'7.4'
p1976
F16
sS'3.10'
p1977
F17
sS'3.11'
p1978
F1
sS'3.12'
p1979
F8
sS'3.13'
p1980
F10
sS'3.14'
p1981
F8
sS'3.15'
p1982
F13
sS'3.6'
p1983
F11
sS'3.7'
p1984
F2
sS'3.4'
p1985
F1
sS'3.5'
p1986
F1
sS'3.2'
p1987
F1
sS'3.3'
p1988
F13
sS'3.1'
p1989
F8
sS'2.3'
p1990
F2
sS'2.2'
p1991
F1
sS'2.1'
p1992
F10
sS'3.8'
p1993
F3
sS'3.9'
p1994
F13
sS'8.13'
p1995
F1
sS'8.12'
p1996
F1
sS'8.1'
p1997
F3
sS'8.3'
p1998
F1
sS'8.2'
p1999
F1
sS'8.5'
p2000
F1
sS'8.4'
p2001
F1
sS'8.7'
p2002
F1
sS'8.6'
p2003
F1
sS'8.9'
p2004
F1
sS'8.8'
p2005
F1
sS'6.19'
p2006
F7
sS'6.18'
p2007
F8
sS'6.13'
p2008
F2
sS'6.12'
p2009
F1
sS'6.11'
p2010
F3
sS'6.10'
p2011
F7
sS'6.17'
p2012
F2
sS'6.16'
p2013
F2
sS'6.15'
p2014
F18
sS'6.14'
p2015
F1
sS'5.10'
p2016
F5
sS'5.11'
p2017
F1
sS'1.4'
p2018
F7
sS'1.5'
p2019
F6
sS'1.6'
p2020
F3
sS'1.1'
p2021
F17
sS'1.2'
p2022
F1
sS'1.3'
p2023
F1
sS'4.5'
p2024
F1
sS'4.4'
p2025
F7
sS'4.7'
p2026
F1
sS'4.6'
p2027
F1
sS'4.1'
p2028
F2
sS'5.5'
p2029
F1
sS'4.3'
p2030
F1
sS'4.2'
p2031
F7
sS'5.8'
p2032
F9
sS'5.9'
p2033
F7
sS'4.9'
p2034
F2
sS'4.8'
p2035
F18
sS'2.5'
p2036
F16
sS'2.4'
p2037
F12
sS'5.1'
p2038
F2
sS'5.2'
p2039
F4
sS'5.3'
p2040
F1
sS'5.4'
p2041
F1
sS'5.6'
p2042
F6
sS'5.7'
p2043
F1
sS'6.20'
p2044
F4
ssS'094-2808305'
p2045
(dp2046
S'1.4'
p2047
F13
sS'1.5'
p2048
F20
sS'1.6'
p2049
F3
sS'1.7'
p2050
F2
sS'4.15'
p2051
F18
sS'1.1'
p2052
F7
sS'1.2'
p2053
F9
sS'1.3'
p2054
F12
sS'3.10'
p2055
F4
sS'3.11'
p2056
F3
sS'3.12'
p2057
F2
sS'3.13'
p2058
F3
sS'3.14'
p2059
F6
sS'3.15'
p2060
F5
sS'3.16'
p2061
F9
sS'3.6'
p2062
F13
sS'3.7'
p2063
F14
sS'3.4'
p2064
F8
sS'3.5'
p2065
F10
sS'3.2'
p2066
F13
sS'3.3'
p2067
F2
sS'3.1'
p2068
F1
sS'2.3'
p2069
F13
sS'2.2'
p2070
F10
sS'2.1'
p2071
F8
sS'4.30'
p2072
F17
sS'2.7'
p2073
F4
sS'2.6'
p2074
F21
sS'2.5'
p2075
F17
sS'2.4'
p2076
F14
sS'4.5'
p2077
F21
sS'4.4'
p2078
F5
sS'4.7'
p2079
F11
sS'4.6'
p2080
F1
sS'4.1'
p2081
F5
sS'4.17'
p2082
F2
sS'4.3'
p2083
F1
sS'4.2'
p2084
F41
sS'4.37'
p2085
F3
sS'4.16'
p2086
F1
sS'4.9'
p2087
F1
sS'4.8'
p2088
F17
sS'4.36'
p2089
F5
sS'5.6'
p2090
F1
sS'4.19'
p2091
F8
sS'4.39'
p2092
F3
sS'3.8'
p2093
F18
sS'4.18'
p2094
F8
sS'4.34'
p2095
F10
sS'4.11'
p2096
F25
sS'3.9'
p2097
F21
sS'5.3'
p2098
F8
sS'4.42'
p2099
F9
sS'5.1'
p2100
F13
sS'4.38'
p2101
F2
sS'5.2'
p2102
F18
sS'4.14'
p2103
F7
sS'4.29'
p2104
F12
sS'4.40'
p2105
F6
sS'4.35'
p2106
F7
sS'4.20'
p2107
F10
sS'4.12'
p2108
F12
sS'4.10'
p2109
F10
sS'4.21'
p2110
F13
sS'4.22'
p2111
F14
sS'4.23'
p2112
F21
sS'4.24'
p2113
F18
sS'4.25'
p2114
F4
sS'4.26'
p2115
F5
sS'4.27'
p2116
F31
sS'4.28'
p2117
F12
sS'4.32'
p2118
F20
sS'4.33'
p2119
F10
sS'5.5'
p2120
F8
sS'2.9'
p2121
F1
sS'2.8'
p2122
F3
sS'5.4'
p2123
F19
sS'4.13'
p2124
F17
sS'4.31'
p2125
F3
sS'4.41'
p2126
F5
ssS'071-10334272'
p2127
(dp2128
S'1.4'
p2129
F4
sS'1.5'
p2130
F1
sS'1.6'
p2131
F2
sS'1.7'
p2132
F4
sS'4.15'
p2133
F5
sS'1.1'
p2134
F2
sS'1.2'
p2135
F23
sS'1.3'
p2136
F18
sS'3.10'
p2137
F2
sS'3.11'
p2138
F3
sS'3.12'
p2139
F5
sS'3.13'
p2140
F4
sS'1.8'
p2141
F3
sS'1.9'
p2142
F4
sS'3.16'
p2143
F2
sS'3.17'
p2144
F2
sS'3.6'
p2145
F3
sS'3.7'
p2146
F24
sS'2.9'
p2147
F3
sS'2.8'
p2148
F2
sS'3.2'
p2149
F17
sS'3.3'
p2150
F2
sS'3.1'
p2151
F2
sS'2.3'
p2152
F1
sS'2.2'
p2153
F19
sS'2.1'
p2154
F1
sS'2.7'
p2155
F5
sS'2.6'
p2156
F19
sS'2.5'
p2157
F24
sS'2.4'
p2158
F3
sS'4.5'
p2159
F1
sS'4.4'
p2160
F10
sS'4.7'
p2161
F20
sS'4.6'
p2162
F2
sS'1.12'
p2163
F1
sS'4.17'
p2164
F5
sS'1.10'
p2165
F1
sS'1.11'
p2166
F1
sS'5.8'
p2167
F23
sS'5.9'
p2168
F28
sS'4.16'
p2169
F4
sS'4.9'
p2170
F3
sS'4.8'
p2171
F2
sS'5.6'
p2172
F10
sS'4.19'
p2173
F2
sS'3.8'
p2174
F19
sS'5.7'
p2175
F11
sS'4.18'
p2176
F2
sS'2.15'
p2177
F2
sS'2.14'
p2178
F2
sS'2.13'
p2179
F2
sS'2.12'
p2180
F5
sS'2.11'
p2181
F4
sS'2.10'
p2182
F5
sS'5.1'
p2183
F1
sS'3.14'
p2184
F5
sS'5.4'
p2185
F13
sS'5.2'
p2186
F23
sS'3.15'
p2187
F2
sS'4.14'
p2188
F3
sS'5.10'
p2189
F1
sS'5.3'
p2190
F19
sS'4.20'
p2191
F2
sS'4.12'
p2192
F5
sS'4.10'
p2193
F24
sS'4.1'
p2194
F2
sS'3.9'
p2195
F5
sS'5.5'
p2196
F19
sS'4.3'
p2197
F26
sS'4.2'
p2198
F12
sS'3.4'
p2199
F20
sS'3.5'
p2200
F2
sS'4.11'
p2201
F19
sS'4.13'
p2202
F2
ssS'007-7484738'
p2203
(dp2204
S'1.4'
p2205
F22
sS'1.5'
p2206
F48
sS'1.6'
p2207
F1
sS'1.7'
p2208
F7
sS'1.1'
p2209
F13
sS'1.2'
p2210
F26
sS'1.3'
p2211
F16
sS'1.8'
p2212
F6
sS'3.6'
p2213
F2
sS'3.7'
p2214
F32
sS'2.9'
p2215
F1
sS'2.8'
p2216
F1
sS'3.2'
p2217
F20
sS'3.3'
p2218
F11
sS'3.1'
p2219
F1
sS'2.3'
p2220
F16
sS'2.2'
p2221
F53
sS'2.1'
p2222
F15
sS'2.7'
p2223
F7
sS'2.6'
p2224
F2
sS'2.5'
p2225
F8
sS'2.4'
p2226
F21
sS'4.5'
p2227
F1
sS'4.4'
p2228
F28
sS'5.2'
p2229
F29
sS'5.3'
p2230
F6
sS'4.1'
p2231
F26
sS'5.5'
p2232
F14
sS'4.3'
p2233
F28
sS'4.2'
p2234
F17
sS'5.8'
p2235
F3
sS'5.9'
p2236
F6
sS'3.8'
p2237
F6
sS'3.9'
p2238
F1
sS'2.11'
p2239
F4
sS'2.10'
p2240
F2
sS'5.1'
p2241
F29
sS'5.12'
p2242
F2
sS'5.13'
p2243
F6
sS'5.10'
p2244
F4
sS'5.11'
p2245
F2
sS'5.4'
p2246
F18
sS'5.6'
p2247
F6
sS'5.7'
p2248
F2
sS'3.4'
p2249
F8
sS'3.5'
p2250
F1
ssS'077-4500595'
p2251
(dp2252
S'1.4'
p2253
F1
sS'1.5'
p2254
F33
sS'1.6'
p2255
F16
sS'1.7'
p2256
F1
sS'1.1'
p2257
F12
sS'1.2'
p2258
F25
sS'1.3'
p2259
F9
sS'3.10'
p2260
F17
sS'3.11'
p2261
F22
sS'3.12'
p2262
F24
sS'3.13'
p2263
F25
sS'1.8'
p2264
F2
sS'1.9'
p2265
F1
sS'3.16'
p2266
F10
sS'3.17'
p2267
F9
sS'3.6'
p2268
F26
sS'3.7'
p2269
F10
sS'2.9'
p2270
F24
sS'2.8'
p2271
F23
sS'3.2'
p2272
F20
sS'3.3'
p2273
F18
sS'3.1'
p2274
F12
sS'2.3'
p2275
F10
sS'2.2'
p2276
F26
sS'2.1'
p2277
F13
sS'2.7'
p2278
F21
sS'2.6'
p2279
F17
sS'2.5'
p2280
F34
sS'2.4'
p2281
F2
sS'4.5'
p2282
F34
sS'4.4'
p2283
F1
sS'4.7'
p2284
F22
sS'4.6'
p2285
F17
sS'1.12'
p2286
F1
sS'5.5'
p2287
F35
sS'1.10'
p2288
F3
sS'1.11'
p2289
F9
sS'4.9'
p2290
F25
sS'4.8'
p2291
F24
sS'5.6'
p2292
F20
sS'3.8'
p2293
F2
sS'5.7'
p2294
F26
sS'3.9'
p2295
F34
sS'5.1'
p2296
F3
sS'3.14'
p2297
F1
sS'5.4'
p2298
F19
sS'5.2'
p2299
F17
sS'3.15'
p2300
F8
sS'5.3'
p2301
F23
sS'4.1'
p2302
F2
sS'3.18'
p2303
F13
sS'4.3'
p2304
F22
sS'4.2'
p2305
F16
sS'3.4'
p2306
F2
sS'3.5'
p2307
F13
ssS'043-10248963'
p2308
(dp2309
S'7.14'
p2310
F18
sS'7.15'
p2311
F2
sS'7.16'
p2312
F2
sS'7.17'
p2313
F4
sS'7.10'
p2314
F9
sS'7.11'
p2315
F2
sS'7.12'
p2316
F3
sS'7.13'
p2317
F14
sS'7.18'
p2318
F4
sS'7.19'
p2319
F3
sS'6.7'
p2320
F5
sS'6.6'
p2321
F7
sS'6.5'
p2322
F4
sS'6.4'
p2323
F1
sS'6.3'
p2324
F22
sS'6.2'
p2325
F20
sS'6.1'
p2326
F17
sS'7.5'
p2327
F21
sS'8.15'
p2328
F3
sS'8.14'
p2329
F2
sS'7.8'
p2330
F1
sS'7.9'
p2331
F4
sS'8.11'
p2332
F2
sS'8.10'
p2333
F12
sS'6.9'
p2334
F15
sS'6.8'
p2335
F10
sS'2.14'
p2336
F5
sS'2.13'
p2337
F9
sS'2.12'
p2338
F8
sS'2.11'
p2339
F2
sS'2.10'
p2340
F2
sS'8.17'
p2341
F18
sS'7.2'
p2342
F13
sS'7.3'
p2343
F18
sS'7.1'
p2344
F50
sS'7.6'
p2345
F25
sS'7.7'
p2346
F11
sS'4.11'
p2347
F3
sS'4.10'
p2348
F2
sS'7.4'
p2349
F13
sS'3.10'
p2350
F18
sS'3.11'
p2351
F13
sS'3.12'
p2352
F2
sS'3.13'
p2353
F2
sS'3.14'
p2354
F2
sS'3.15'
p2355
F8
sS'3.16'
p2356
F9
sS'3.17'
p2357
F5
sS'3.6'
p2358
F15
sS'3.7'
p2359
F8
sS'2.9'
p2360
F2
sS'2.8'
p2361
F13
sS'3.2'
p2362
F1
sS'3.3'
p2363
F2
sS'3.1'
p2364
F14
sS'2.3'
p2365
F14
sS'2.2'
p2366
F18
sS'2.1'
p2367
F11
sS'2.7'
p2368
F18
sS'2.6'
p2369
F2
sS'2.5'
p2370
F1
sS'2.4'
p2371
F7
sS'8.16'
p2372
F14
sS'8.13'
p2373
F9
sS'8.12'
p2374
F5
sS'7.24'
p2375
F1
sS'7.21'
p2376
F6
sS'7.20'
p2377
F6
sS'7.23'
p2378
F1
sS'7.22'
p2379
F3
sS'8.18'
p2380
F2
sS'8.1'
p2381
F8
sS'8.3'
p2382
F2
sS'8.2'
p2383
F3
sS'8.5'
p2384
F14
sS'8.4'
p2385
F51
sS'8.7'
p2386
F14
sS'8.6'
p2387
F19
sS'8.9'
p2388
F26
sS'8.8'
p2389
F22
sS'6.19'
p2390
F13
sS'6.18'
p2391
F18
sS'6.13'
p2392
F19
sS'6.12'
p2393
F12
sS'6.11'
p2394
F3
sS'6.10'
p2395
F2
sS'6.17'
p2396
F3
sS'6.16'
p2397
F2
sS'6.15'
p2398
F8
sS'6.14'
p2399
F15
sS'5.12'
p2400
F6
sS'5.13'
p2401
F3
sS'5.10'
p2402
F3
sS'5.11'
p2403
F6
sS'8.20'
p2404
F4
sS'8.21'
p2405
F4
sS'8.22'
p2406
F3
sS'8.23'
p2407
F6
sS'3.4'
p2408
F12
sS'3.5'
p2409
F19
sS'1.4'
p2410
F1
sS'1.5'
p2411
F1
sS'1.6'
p2412
F7
sS'1.7'
p2413
F8
sS'1.1'
p2414
F17
sS'1.2'
p2415
F12
sS'1.3'
p2416
F1
sS'1.8'
p2417
F4
sS'8.19'
p2418
F2
sS'4.5'
p2419
F3
sS'4.4'
p2420
F1
sS'4.7'
p2421
F2
sS'4.6'
p2422
F3
sS'4.1'
p2423
F14
sS'5.5'
p2424
F18
sS'4.3'
p2425
F1
sS'4.2'
p2426
F17
sS'5.8'
p2427
F4
sS'5.9'
p2428
F4
sS'4.9'
p2429
F5
sS'4.8'
p2430
F5
sS'3.8'
p2431
F2
sS'3.9'
p2432
F3
sS'5.1'
p2433
F8
sS'5.2'
p2434
F1
sS'5.3'
p2435
F2
sS'5.4'
p2436
F14
sS'8.24'
p2437
F6
sS'5.6'
p2438
F2
sS'8.25'
p2439
F3
sS'5.7'
p2440
F2
sS'6.24'
p2441
F9
sS'6.25'
p2442
F5
sS'6.22'
p2443
F2
sS'6.23'
p2444
F8
sS'6.20'
p2445
F2
sS'6.21'
p2446
F2
ssS'053-15491914'
p2447
(dp2448
S'7.2'
p2449
F12
sS'7.3'
p2450
F7
sS'6.5'
p2451
F30
sS'6.4'
p2452
F2
sS'6.3'
p2453
F13
sS'6.2'
p2454
F5
sS'6.1'
p2455
F2
sS'7.5'
p2456
F16
sS'6.9'
p2457
F6
sS'6.8'
p2458
F10
sS'2.10'
p2459
F1
sS'6.7'
p2460
F17
sS'6.6'
p2461
F2
sS'7.1'
p2462
F8
sS'7.6'
p2463
F1
sS'4.11'
p2464
F6
sS'4.10'
p2465
F1
sS'4.13'
p2466
F3
sS'4.12'
p2467
F6
sS'4.15'
p2468
F2
sS'4.14'
p2469
F4
sS'3.10'
p2470
F18
sS'3.11'
p2471
F10
sS'3.12'
p2472
F6
sS'3.13'
p2473
F2
sS'3.14'
p2474
F4
sS'3.15'
p2475
F13
sS'3.16'
p2476
F1
sS'3.6'
p2477
F36
sS'3.7'
p2478
F1
sS'3.4'
p2479
F21
sS'3.5'
p2480
F2
sS'3.2'
p2481
F14
sS'3.3'
p2482
F9
sS'3.1'
p2483
F17
sS'2.3'
p2484
F9
sS'2.2'
p2485
F14
sS'2.1'
p2486
F17
sS'2.7'
p2487
F17
sS'2.6'
p2488
F35
sS'2.5'
p2489
F2
sS'2.4'
p2490
F21
sS'5.21'
p2491
F2
sS'5.20'
p2492
F3
sS'8.1'
p2493
F16
sS'8.3'
p2494
F1
sS'8.2'
p2495
F2
sS'6.13'
p2496
F3
sS'6.12'
p2497
F9
sS'6.11'
p2498
F14
sS'6.10'
p2499
F5
sS'6.16'
p2500
F1
sS'6.15'
p2501
F15
sS'6.14'
p2502
F22
sS'5.12'
p2503
F2
sS'5.13'
p2504
F7
sS'5.10'
p2505
F2
sS'5.11'
p2506
F2
sS'5.16'
p2507
F5
sS'5.17'
p2508
F3
sS'5.14'
p2509
F7
sS'5.15'
p2510
F4
sS'5.18'
p2511
F2
sS'5.19'
p2512
F3
sS'2.9'
p2513
F5
sS'2.8'
p2514
F9
sS'1.4'
p2515
F20
sS'1.5'
p2516
F1
sS'1.1'
p2517
F16
sS'1.2'
p2518
F13
sS'1.3'
p2519
F8
sS'4.5'
p2520
F14
sS'4.4'
p2521
F10
sS'4.7'
p2522
F25
sS'4.6'
p2523
F17
sS'4.1'
p2524
F8
sS'5.5'
p2525
F7
sS'4.3'
p2526
F6
sS'4.2'
p2527
F11
sS'5.8'
p2528
F18
sS'5.9'
p2529
F26
sS'4.9'
p2530
F1
sS'4.8'
p2531
F1
sS'3.8'
p2532
F4
sS'7.4'
p2533
F6
sS'3.9'
p2534
F12
sS'5.1'
p2535
F19
sS'5.2'
p2536
F1
sS'5.3'
p2537
F8
sS'5.4'
p2538
F12
sS'5.6'
p2539
F10
sS'5.7'
p2540
F14
ssS'059-11070771'
p2541
(dp2542
S'1.4'
p2543
F9
sS'1.5'
p2544
F1
sS'1.6'
p2545
F2
sS'1.7'
p2546
F1
sS'7.10'
p2547
F7
sS'1.1'
p2548
F17
sS'1.2'
p2549
F21
sS'1.3'
p2550
F6
sS'3.10'
p2551
F4
sS'3.11'
p2552
F5
sS'7.5'
p2553
F22
sS'1.8'
p2554
F8
sS'1.9'
p2555
F10
sS'3.6'
p2556
F2
sS'3.7'
p2557
F2
sS'3.4'
p2558
F23
sS'3.5'
p2559
F6
sS'3.2'
p2560
F17
sS'3.3'
p2561
F9
sS'6.1'
p2562
F22
sS'3.1'
p2563
F11
sS'2.3'
p2564
F1
sS'2.2'
p2565
F5
sS'2.1'
p2566
F22
sS'7.9'
p2567
F5
sS'7.7'
p2568
F12
sS'7.8'
p2569
F2
sS'2.5'
p2570
F6
sS'2.4'
p2571
F1
sS'4.5'
p2572
F6
sS'4.4'
p2573
F4
sS'5.2'
p2574
F19
sS'4.6'
p2575
F7
sS'4.1'
p2576
F10
sS'5.5'
p2577
F18
sS'1.10'
p2578
F8
sS'1.11'
p2579
F13
sS'5.8'
p2580
F10
sS'5.9'
p2581
F1
sS'7.13'
p2582
F8
sS'5.6'
p2583
F22
sS'3.8'
p2584
F7
sS'5.7'
p2585
F7
sS'7.4'
p2586
F1
sS'3.9'
p2587
F2
sS'7.16'
p2588
F13
sS'5.1'
p2589
F27
sS'7.2'
p2590
F4
sS'7.11'
p2591
F8
sS'5.10'
p2592
F2
sS'5.3'
p2593
F1
sS'5.4'
p2594
F2
sS'7.3'
p2595
F1
sS'7.1'
p2596
F5
sS'6.7'
p2597
F7
sS'7.14'
p2598
F10
sS'4.3'
p2599
F1
sS'6.6'
p2600
F6
sS'7.12'
p2601
F1
sS'4.2'
p2602
F14
sS'6.5'
p2603
F4
sS'7.15'
p2604
F8
sS'6.4'
p2605
F1
sS'6.3'
p2606
F11
sS'7.6'
p2607
F29
sS'6.2'
p2608
F28
ssS'067-1027069'
p2609
(dp2610
S'1.4'
p2611
F4
sS'1.5'
p2612
F4
sS'1.6'
p2613
F1
sS'1.7'
p2614
F4
sS'1.1'
p2615
F35
sS'1.2'
p2616
F29
sS'1.3'
p2617
F21
sS'3.10'
p2618
F1
sS'3.11'
p2619
F4
sS'3.12'
p2620
F5
sS'3.13'
p2621
F6
sS'1.8'
p2622
F5
sS'1.9'
p2623
F6
sS'3.6'
p2624
F9
sS'3.7'
p2625
F28
sS'2.9'
p2626
F22
sS'2.8'
p2627
F30
sS'3.2'
p2628
F5
sS'3.3'
p2629
F19
sS'5.21'
p2630
F6
sS'3.1'
p2631
F5
sS'2.3'
p2632
F18
sS'2.2'
p2633
F4
sS'2.1'
p2634
F4
sS'2.7'
p2635
F36
sS'2.6'
p2636
F1
sS'2.5'
p2637
F1
sS'2.4'
p2638
F31
sS'4.5'
p2639
F3
sS'4.4'
p2640
F3
sS'5.2'
p2641
F22
sS'5.3'
p2642
F17
sS'4.1'
p2643
F21
sS'5.5'
p2644
F6
sS'1.10'
p2645
F4
sS'4.2'
p2646
F22
sS'5.8'
p2647
F12
sS'5.9'
p2648
F20
sS'6.1'
p2649
F21
sS'6.9'
p2650
F1
sS'5.6'
p2651
F7
sS'5.25'
p2652
F3
sS'3.8'
p2653
F12
sS'5.24'
p2654
F3
sS'2.16'
p2655
F7
sS'2.15'
p2656
F8
sS'2.14'
p2657
F5
sS'2.13'
p2658
F9
sS'2.12'
p2659
F1
sS'2.11'
p2660
F5
sS'2.10'
p2661
F5
sS'6.8'
p2662
F3
sS'5.1'
p2663
F22
sS'3.14'
p2664
F4
sS'6.2'
p2665
F23
sS'6.10'
p2666
F6
sS'3.15'
p2667
F8
sS'5.12'
p2668
F9
sS'5.13'
p2669
F13
sS'5.10'
p2670
F14
sS'5.11'
p2671
F19
sS'5.16'
p2672
F1
sS'5.17'
p2673
F4
sS'5.14'
p2674
F36
sS'5.15'
p2675
F26
sS'6.5'
p2676
F7
sS'5.4'
p2677
F16
sS'5.18'
p2678
F4
sS'5.19'
p2679
F4
sS'3.9'
p2680
F21
sS'5.20'
p2681
F2
sS'6.7'
p2682
F1
sS'4.3'
p2683
F1
sS'6.6'
p2684
F18
sS'5.7'
p2685
F26
sS'3.4'
p2686
F32
sS'6.3'
p2687
F10
sS'3.5'
p2688
F27
sS'6.4'
p2689
F66
sS'5.23'
p2690
F1
sS'5.22'
p2691
F1
ssS'059-7186494'
p2692
(dp2693
S'1.4'
p2694
F8
sS'1.5'
p2695
F12
sS'1.6'
p2696
F13
sS'1.7'
p2697
F1
sS'4.15'
p2698
F1
sS'1.1'
p2699
F8
sS'1.2'
p2700
F15
sS'1.3'
p2701
F3
sS'3.10'
p2702
F8
sS'3.11'
p2703
F1
sS'3.12'
p2704
F5
sS'3.13'
p2705
F8
sS'1.8'
p2706
F1
sS'1.9'
p2707
F9
sS'3.6'
p2708
F13
sS'3.7'
p2709
F14
sS'3.4'
p2710
F4
sS'2.8'
p2711
F1
sS'3.2'
p2712
F9
sS'3.3'
p2713
F16
sS'3.1'
p2714
F18
sS'2.3'
p2715
F16
sS'2.2'
p2716
F9
sS'2.1'
p2717
F11
sS'2.7'
p2718
F6
sS'2.6'
p2719
F1
sS'2.5'
p2720
F1
sS'2.4'
p2721
F8
sS'4.5'
p2722
F14
sS'4.4'
p2723
F7
sS'4.7'
p2724
F21
sS'4.6'
p2725
F19
sS'1.12'
p2726
F7
sS'4.17'
p2727
F1
sS'1.10'
p2728
F5
sS'1.11'
p2729
F8
sS'4.16'
p2730
F2
sS'4.9'
p2731
F9
sS'4.8'
p2732
F1
sS'4.19'
p2733
F10
sS'3.8'
p2734
F1
sS'4.18'
p2735
F2
sS'4.11'
p2736
F4
sS'3.9'
p2737
F1
sS'3.14'
p2738
F7
sS'4.14'
p2739
F14
sS'4.20'
p2740
F6
sS'4.12'
p2741
F9
sS'4.10'
p2742
F16
sS'4.1'
p2743
F10
sS'4.22'
p2744
F8
sS'4.3'
p2745
F11
sS'4.2'
p2746
F6
sS'4.21'
p2747
F9
sS'3.5'
p2748
F9
sS'4.13'
p2749
F13
ssS'074-2313297'
p2750
(dp2751
S'7.14'
p2752
F27
sS'7.15'
p2753
F6
sS'7.16'
p2754
F12
sS'7.17'
p2755
F8
sS'7.10'
p2756
F19
sS'7.11'
p2757
F17
sS'7.12'
p2758
F21
sS'7.13'
p2759
F27
sS'7.18'
p2760
F29
sS'7.19'
p2761
F2
sS'7.2'
p2762
F7
sS'7.3'
p2763
F2
sS'6.5'
p2764
F1
sS'6.4'
p2765
F27
sS'6.3'
p2766
F24
sS'7.7'
p2767
F14
sS'6.1'
p2768
F4
sS'7.5'
p2769
F5
sS'7.8'
p2770
F11
sS'7.9'
p2771
F11
sS'8.11'
p2772
F16
sS'8.10'
p2773
F26
sS'6.9'
p2774
F6
sS'6.8'
p2775
F9
sS'1.12'
p2776
F9
sS'1.13'
p2777
F1
sS'1.10'
p2778
F2
sS'1.11'
p2779
F3
sS'2.13'
p2780
F1
sS'2.12'
p2781
F11
sS'2.11'
p2782
F16
sS'2.10'
p2783
F18
sS'6.7'
p2784
F9
sS'6.6'
p2785
F4
sS'7.1'
p2786
F32
sS'7.6'
p2787
F14
sS'6.2'
p2788
F10
sS'4.11'
p2789
F9
sS'4.10'
p2790
F3
sS'4.12'
p2791
F1
sS'7.4'
p2792
F12
sS'3.6'
p2793
F1
sS'3.7'
p2794
F2
sS'2.9'
p2795
F10
sS'2.8'
p2796
F10
sS'3.2'
p2797
F27
sS'3.3'
p2798
F28
sS'3.1'
p2799
F25
sS'2.3'
p2800
F2
sS'2.2'
p2801
F7
sS'2.1'
p2802
F32
sS'2.7'
p2803
F13
sS'2.6'
p2804
F13
sS'2.5'
p2805
F4
sS'2.4'
p2806
F11
sS'8.13'
p2807
F8
sS'8.12'
p2808
F12
sS'7.21'
p2809
F1
sS'7.20'
p2810
F30
sS'8.1'
p2811
F14
sS'8.3'
p2812
F11
sS'8.2'
p2813
F11
sS'8.5'
p2814
F17
sS'8.4'
p2815
F19
sS'8.7'
p2816
F42
sS'8.6'
p2817
F13
sS'8.9'
p2818
F23
sS'8.8'
p2819
F17
sS'5.12'
p2820
F19
sS'5.13'
p2821
F17
sS'5.10'
p2822
F11
sS'5.11'
p2823
F11
sS'5.14'
p2824
F12
sS'5.15'
p2825
F1
sS'3.4'
p2826
F14
sS'3.5'
p2827
F2
sS'1.4'
p2828
F1
sS'1.5'
p2829
F2
sS'1.6'
p2830
F3
sS'1.7'
p2831
F1
sS'1.1'
p2832
F31
sS'1.2'
p2833
F6
sS'1.3'
p2834
F1
sS'1.8'
p2835
F1
sS'1.9'
p2836
F2
sS'4.5'
p2837
F6
sS'4.4'
p2838
F10
sS'4.7'
p2839
F7
sS'4.6'
p2840
F12
sS'5.4'
p2841
F7
sS'5.5'
p2842
F2
sS'5.6'
p2843
F12
sS'5.7'
p2844
F5
sS'5.8'
p2845
F14
sS'5.9'
p2846
F14
sS'4.9'
p2847
F24
sS'4.8'
p2848
F12
sS'3.8'
p2849
F12
sS'5.1'
p2850
F10
sS'5.2'
p2851
F1
sS'5.3'
p2852
F32
sS'4.1'
p2853
F12
sS'4.3'
p2854
F14
sS'4.2'
p2855
F20
ssS'059-15393869'
p2856
(dp2857
S'1.4'
p2858
F25
sS'1.5'
p2859
F13
sS'1.6'
p2860
F1
sS'1.7'
p2861
F2
sS'4.15'
p2862
F5
sS'1.1'
p2863
F4
sS'1.2'
p2864
F42
sS'1.3'
p2865
F16
sS'4.19'
p2866
F3
sS'4.18'
p2867
F3
sS'1.8'
p2868
F1
sS'1.9'
p2869
F8
sS'5.2'
p2870
F4
sS'4.20'
p2871
F1
sS'3.4'
p2872
F17
sS'3.5'
p2873
F2
sS'3.2'
p2874
F5
sS'3.3'
p2875
F1
sS'6.1'
p2876
F8
sS'3.1'
p2877
F4
sS'2.3'
p2878
F11
sS'2.2'
p2879
F1
sS'2.1'
p2880
F16
sS'2.6'
p2881
F1
sS'2.5'
p2882
F3
sS'2.4'
p2883
F25
sS'1.16'
p2884
F1
sS'1.17'
p2885
F10
sS'1.14'
p2886
F16
sS'1.15'
p2887
F15
sS'1.12'
p2888
F13
sS'1.13'
p2889
F2
sS'1.10'
p2890
F10
sS'1.11'
p2891
F8
sS'5.8'
p2892
F2
sS'5.9'
p2893
F17
sS'4.16'
p2894
F3
sS'4.9'
p2895
F1
sS'4.8'
p2896
F2
sS'1.18'
p2897
F2
sS'1.19'
p2898
F11
sS'5.6'
p2899
F5
sS'5.7'
p2900
F6
sS'4.11'
p2901
F1
sS'4.5'
p2902
F6
sS'4.4'
p2903
F5
sS'6.2'
p2904
F24
sS'5.4'
p2905
F13
sS'4.7'
p2906
F17
sS'6.3'
p2907
F1
sS'4.14'
p2908
F3
sS'5.10'
p2909
F2
sS'4.6'
p2910
F2
sS'4.12'
p2911
F1
sS'4.10'
p2912
F1
sS'4.1'
p2913
F4
sS'5.3'
p2914
F16
sS'5.5'
p2915
F1
sS'4.3'
p2916
F2
sS'4.2'
p2917
F7
sS'4.17'
p2918
F1
sS'5.1'
p2919
F13
sS'4.13'
p2920
F2
sS'1.23'
p2921
F9
sS'1.22'
p2922
F2
sS'1.21'
p2923
F11
sS'1.20'
p2924
F2
sS'1.27'
p2925
F2
sS'1.26'
p2926
F2
sS'1.25'
p2927
F3
sS'1.24'
p2928
F3
ssS'015-2625401'
p2929
(dp2930
S'1.4'
p2931
F1
sS'1.5'
p2932
F9
sS'1.6'
p2933
F16
sS'1.7'
p2934
F22
sS'4.15'
p2935
F30
sS'1.1'
p2936
F2
sS'1.2'
p2937
F26
sS'1.3'
p2938
F9
sS'3.10'
p2939
F24
sS'3.11'
p2940
F8
sS'3.12'
p2941
F1
sS'1.8'
p2942
F1
sS'1.9'
p2943
F18
sS'5.2'
p2944
F9
sS'3.6'
p2945
F25
sS'3.7'
p2946
F11
sS'2.9'
p2947
F1
sS'2.8'
p2948
F1
sS'3.2'
p2949
F5
sS'3.3'
p2950
F12
sS'6.1'
p2951
F2
sS'3.1'
p2952
F7
sS'2.3'
p2953
F19
sS'2.2'
p2954
F9
sS'2.1'
p2955
F12
sS'2.7'
p2956
F15
sS'2.6'
p2957
F29
sS'2.5'
p2958
F10
sS'2.4'
p2959
F24
sS'1.16'
p2960
F11
sS'1.17'
p2961
F8
sS'1.14'
p2962
F2
sS'1.15'
p2963
F19
sS'1.12'
p2964
F1
sS'1.13'
p2965
F29
sS'1.10'
p2966
F29
sS'1.11'
p2967
F32
sS'5.8'
p2968
F1
sS'5.9'
p2969
F14
sS'4.16'
p2970
F16
sS'4.9'
p2971
F5
sS'4.8'
p2972
F9
sS'1.18'
p2973
F18
sS'1.19'
p2974
F1
sS'5.6'
p2975
F14
sS'6.9'
p2976
F43
sS'6.5'
p2977
F9
sS'3.8'
p2978
F30
sS'5.7'
p2979
F1
sS'4.18'
p2980
F2
sS'6.8'
p2981
F33
sS'6.4'
p2982
F1
sS'4.11'
p2983
F9
sS'3.9'
p2984
F16
sS'4.5'
p2985
F8
sS'6.10'
p2986
F23
sS'4.4'
p2987
F15
sS'6.13'
p2988
F2
sS'6.12'
p2989
F2
sS'6.11'
p2990
F15
sS'5.4'
p2991
F42
sS'4.7'
p2992
F1
sS'6.3'
p2993
F19
sS'4.14'
p2994
F11
sS'5.10'
p2995
F7
sS'4.6'
p2996
F4
sS'4.12'
p2997
F19
sS'4.10'
p2998
F12
sS'4.1'
p2999
F6
sS'6.14'
p3000
F22
sS'5.3'
p3001
F32
sS'5.5'
p3002
F22
sS'6.7'
p3003
F9
sS'4.3'
p3004
F12
sS'6.6'
p3005
F3
sS'4.2'
p3006
F15
sS'3.4'
p3007
F9
sS'4.17'
p3008
F2
sS'5.1'
p3009
F2
sS'3.5'
p3010
F19
sS'4.13'
p3011
F25
sS'1.22'
p3012
F1
sS'1.21'
p3013
F6
sS'1.20'
p3014
F1
sS'6.2'
p3015
F5
ssS'063-1009111'
p3016
(dp3017
S'1.4'
p3018
F6
sS'1.5'
p3019
F18
sS'1.6'
p3020
F6
sS'1.7'
p3021
F1
sS'4.15'
p3022
F11
sS'1.1'
p3023
F23
sS'1.2'
p3024
F31
sS'1.3'
p3025
F29
sS'3.10'
p3026
F26
sS'3.11'
p3027
F10
sS'3.12'
p3028
F1
sS'1.8'
p3029
F4
sS'1.9'
p3030
F1
sS'5.2'
p3031
F14
sS'3.6'
p3032
F13
sS'3.7'
p3033
F19
sS'3.4'
p3034
F6
sS'3.5'
p3035
F11
sS'3.2'
p3036
F17
sS'3.3'
p3037
F11
sS'6.1'
p3038
F2
sS'3.1'
p3039
F4
sS'2.3'
p3040
F30
sS'2.2'
p3041
F7
sS'2.1'
p3042
F19
sS'2.7'
p3043
F20
sS'2.6'
p3044
F22
sS'2.5'
p3045
F15
sS'2.4'
p3046
F18
sS'1.16'
p3047
F10
sS'1.17'
p3048
F1
sS'1.14'
p3049
F18
sS'1.15'
p3050
F19
sS'1.12'
p3051
F12
sS'1.13'
p3052
F6
sS'1.10'
p3053
F3
sS'1.11'
p3054
F42
sS'5.8'
p3055
F7
sS'5.9'
p3056
F6
sS'6.9'
p3057
F1
sS'4.9'
p3058
F4
sS'4.8'
p3059
F2
sS'1.18'
p3060
F3
sS'1.19'
p3061
F6
sS'5.6'
p3062
F13
sS'3.8'
p3063
F31
sS'5.7'
p3064
F21
sS'6.8'
p3065
F8
sS'6.4'
p3066
F30
sS'4.11'
p3067
F8
sS'3.9'
p3068
F32
sS'4.5'
p3069
F12
sS'5.14'
p3070
F33
sS'4.4'
p3071
F16
sS'5.4'
p3072
F8
sS'4.7'
p3073
F5
sS'4.14'
p3074
F2
sS'5.13'
p3075
F60
sS'5.10'
p3076
F16
sS'4.6'
p3077
F1
sS'5.16'
p3078
F1
sS'5.17'
p3079
F2
sS'4.12'
p3080
F7
sS'5.15'
p3081
F5
sS'4.10'
p3082
F4
sS'4.1'
p3083
F1
sS'5.3'
p3084
F17
sS'5.5'
p3085
F6
sS'5.12'
p3086
F26
sS'4.3'
p3087
F18
sS'6.6'
p3088
F28
sS'4.2'
p3089
F3
sS'6.5'
p3090
F26
sS'6.3'
p3091
F14
sS'5.1'
p3092
F15
sS'5.11'
p3093
F22
sS'4.13'
p3094
F4
sS'6.7'
p3095
F28
sS'1.23'
p3096
F1
sS'1.22'
p3097
F9
sS'1.21'
p3098
F4
sS'1.20'
p3099
F1
sS'6.2'
p3100
F22
ssS'053-15927827'
p3101
(dp3102
S'7.10'
p3103
F12
sS'7.11'
p3104
F10
sS'7.12'
p3105
F18
sS'7.13'
p3106
F1
sS'7.2'
p3107
F20
sS'7.3'
p3108
F21
sS'6.5'
p3109
F4
sS'7.1'
p3110
F13
sS'6.3'
p3111
F21
sS'6.2'
p3112
F20
sS'6.1'
p3113
F13
sS'7.5'
p3114
F5
sS'7.8'
p3115
F11
sS'7.9'
p3116
F12
sS'6.9'
p3117
F1
sS'6.8'
p3118
F10
sS'2.19'
p3119
F4
sS'2.18'
p3120
F1
sS'2.17'
p3121
F7
sS'2.16'
p3122
F11
sS'2.15'
p3123
F10
sS'2.14'
p3124
F21
sS'2.13'
p3125
F26
sS'2.12'
p3126
F1
sS'2.11'
p3127
F8
sS'2.10'
p3128
F19
sS'6.7'
p3129
F17
sS'6.6'
p3130
F28
sS'6.4'
p3131
F14
sS'7.6'
p3132
F29
sS'7.7'
p3133
F18
sS'4.11'
p3134
F6
sS'4.10'
p3135
F6
sS'4.13'
p3136
F14
sS'4.12'
p3137
F12
sS'4.15'
p3138
F9
sS'7.4'
p3139
F14
sS'4.17'
p3140
F2
sS'4.16'
p3141
F3
sS'3.10'
p3142
F19
sS'3.11'
p3143
F28
sS'3.12'
p3144
F1
sS'3.13'
p3145
F3
sS'3.14'
p3146
F5
sS'3.15'
p3147
F6
sS'3.6'
p3148
F15
sS'3.7'
p3149
F7
sS'2.9'
p3150
F13
sS'2.8'
p3151
F11
sS'3.2'
p3152
F7
sS'3.3'
p3153
F11
sS'3.1'
p3154
F2
sS'2.3'
p3155
F10
sS'2.2'
p3156
F6
sS'2.1'
p3157
F1
sS'2.7'
p3158
F6
sS'2.6'
p3159
F14
sS'2.5'
p3160
F12
sS'2.4'
p3161
F7
sS'4.21'
p3162
F11
sS'4.14'
p3163
F20
sS'4.19'
p3164
F21
sS'4.18'
p3165
F26
sS'3.4'
p3166
F8
sS'3.5'
p3167
F13
sS'1.4'
p3168
F10
sS'1.5'
p3169
F6
sS'1.6'
p3170
F1
sS'1.7'
p3171
F4
sS'1.1'
p3172
F25
sS'1.2'
p3173
F20
sS'1.3'
p3174
F9
sS'4.5'
p3175
F13
sS'4.4'
p3176
F8
sS'4.7'
p3177
F1
sS'4.6'
p3178
F15
sS'4.1'
p3179
F2
sS'5.5'
p3180
F22
sS'4.3'
p3181
F11
sS'4.2'
p3182
F7
sS'4.9'
p3183
F14
sS'4.8'
p3184
F7
sS'3.8'
p3185
F12
sS'3.9'
p3186
F1
sS'5.1'
p3187
F13
sS'5.2'
p3188
F19
sS'5.3'
p3189
F20
sS'4.20'
p3190
F10
sS'5.4'
p3191
F13
sS'4.22'
p3192
F7
sS'4.23'
p3193
F4
sS'5.6'
p3194
F5
sS'5.7'
p3195
F1
ssS'067-11978590'
p3196
(dp3197
S'7.10'
p3198
F3
sS'6.7'
p3199
F17
sS'6.6'
p3200
F38
sS'6.5'
p3201
F10
sS'6.4'
p3202
F2
sS'6.3'
p3203
F1
sS'6.2'
p3204
F17
sS'6.1'
p3205
F16
sS'7.5'
p3206
F16
sS'7.8'
p3207
F1
sS'7.9'
p3208
F3
sS'6.9'
p3209
F23
sS'6.8'
p3210
F5
sS'1.12'
p3211
F5
sS'1.13'
p3212
F1
sS'1.10'
p3213
F3
sS'1.11'
p3214
F3
sS'2.11'
p3215
F1
sS'2.10'
p3216
F6
sS'7.2'
p3217
F22
sS'7.3'
p3218
F32
sS'7.1'
p3219
F7
sS'7.6'
p3220
F17
sS'7.7'
p3221
F2
sS'4.11'
p3222
F4
sS'4.10'
p3223
F2
sS'4.13'
p3224
F4
sS'4.12'
p3225
F5
sS'4.15'
p3226
F6
sS'4.14'
p3227
F4
sS'4.17'
p3228
F9
sS'4.16'
p3229
F1
sS'4.19'
p3230
F8
sS'4.18'
p3231
F5
sS'3.6'
p3232
F2
sS'3.7'
p3233
F1
sS'2.9'
p3234
F1
sS'2.8'
p3235
F1
sS'3.2'
p3236
F4
sS'3.3'
p3237
F8
sS'3.1'
p3238
F9
sS'2.3'
p3239
F24
sS'2.2'
p3240
F16
sS'2.1'
p3241
F20
sS'2.7'
p3242
F32
sS'2.6'
p3243
F11
sS'2.5'
p3244
F27
sS'2.4'
p3245
F30
sS'6.19'
p3246
F5
sS'6.18'
p3247
F4
sS'6.13'
p3248
F3
sS'6.12'
p3249
F6
sS'6.11'
p3250
F2
sS'6.10'
p3251
F9
sS'6.17'
p3252
F2
sS'6.16'
p3253
F2
sS'6.15'
p3254
F3
sS'6.14'
p3255
F7
sS'5.12'
p3256
F1
sS'5.13'
p3257
F1
sS'5.10'
p3258
F7
sS'5.11'
p3259
F2
sS'5.16'
p3260
F3
sS'5.17'
p3261
F3
sS'5.14'
p3262
F3
sS'5.15'
p3263
F4
sS'5.18'
p3264
F5
sS'5.19'
p3265
F1
sS'3.4'
p3266
F5
sS'3.5'
p3267
F6
sS'1.4'
p3268
F15
sS'1.5'
p3269
F1
sS'1.6'
p3270
F1
sS'1.7'
p3271
F1
sS'1.1'
p3272
F16
sS'1.2'
p3273
F24
sS'1.3'
p3274
F19
sS'1.8'
p3275
F3
sS'1.9'
p3276
F4
sS'4.5'
p3277
F25
sS'4.4'
p3278
F17
sS'4.7'
p3279
F16
sS'4.6'
p3280
F20
sS'5.4'
p3281
F5
sS'5.5'
p3282
F22
sS'5.6'
p3283
F9
sS'5.7'
p3284
F1
sS'5.8'
p3285
F6
sS'5.9'
p3286
F2
sS'4.9'
p3287
F2
sS'4.8'
p3288
F2
sS'3.8'
p3289
F3
sS'7.4'
p3290
F19
sS'3.9'
p3291
F3
sS'5.1'
p3292
F10
sS'5.2'
p3293
F37
sS'5.3'
p3294
F16
sS'4.20'
p3295
F7
sS'4.1'
p3296
F2
sS'4.3'
p3297
F2
sS'4.2'
p3298
F11
sS'6.24'
p3299
F10
sS'6.22'
p3300
F6
sS'6.23'
p3301
F1
sS'6.20'
p3302
F4
sS'6.21'
p3303
F4
ss.